c__builtin__
set
p1
((lp2
cnumpy.core.multiarray
scalar
p3
(cnumpy
dtype
p4
(S'S11'
I0
I1
tRp5
(I3
S'|'
NNNI11
I1
I0
tbS'hh04W3xXa5s'
tRp6
ag3
(g4
(S'S5'
I0
I1
tRp7
(I3
S'|'
NNNI5
I1
I0
tbS'36098'
tRp8
ag3
(g4
(S'S11'
I0
I1
tRp9
(I3
S'|'
NNNI11
I1
I0
tbS'MsjnLoTKAXo'
tRp10
ag3
(g4
(S'S5'
I0
I1
tRp11
(I3
S'|'
NNNI5
I1
I0
tbS'81406'
tRp12
ag3
(g4
(S'S11'
I0
I1
tRp13
(I3
S'|'
NNNI11
I1
I0
tbS'sw-smuVRByI'
tRp14
ag3
(g4
(S'S11'
I0
I1
tRp15
(I3
S'|'
NNNI11
I1
I0
tbS'qXisb7w9LjM'
tRp16
ag3
(g4
(S'S11'
I0
I1
tRp17
(I3
S'|'
NNNI11
I1
I0
tbS'CLkTjujFVKU'
tRp18
ag3
(g4
(S'S11'
I0
I1
tRp19
(I3
S'|'
NNNI11
I1
I0
tbS'aMtFBGh2wKI'
tRp20
ag3
(g4
(S'S11'
I0
I1
tRp21
(I3
S'|'
NNNI11
I1
I0
tbS'esR-tOjT6KM'
tRp22
ag3
(g4
(S'S11'
I0
I1
tRp23
(I3
S'|'
NNNI11
I1
I0
tbS'2OLVF-KEaZU'
tRp24
ag3
(g4
(S'S11'
I0
I1
tRp25
(I3
S'|'
NNNI11
I1
I0
tbS'Or-9Nc_GAq8'
tRp26
ag3
(g4
(S'S11'
I0
I1
tRp27
(I3
S'|'
NNNI11
I1
I0
tbS'72tXTrSXoMk'
tRp28
ag3
(g4
(S'S11'
I0
I1
tRp29
(I3
S'|'
NNNI11
I1
I0
tbS'hSgKOKK3L8M'
tRp30
ag3
(g4
(S'S11'
I0
I1
tRp31
(I3
S'|'
NNNI11
I1
I0
tbS'YVHJpAROBvQ'
tRp32
ag3
(g4
(S'S11'
I0
I1
tRp33
(I3
S'|'
NNNI11
I1
I0
tbS'pVzHaakhKAw'
tRp34
ag3
(g4
(S'S6'
I0
I1
tRp35
(I3
S'|'
NNNI6
I1
I0
tbS'127470'
tRp36
ag3
(g4
(S'S11'
I0
I1
tRp37
(I3
S'|'
NNNI11
I1
I0
tbS'wY8JbFOsp5E'
tRp38
ag3
(g4
(S'S11'
I0
I1
tRp39
(I3
S'|'
NNNI11
I1
I0
tbS'-iRBcNs9oI8'
tRp40
ag3
(g4
(S'S11'
I0
I1
tRp41
(I3
S'|'
NNNI11
I1
I0
tbS'sLaTZtL0ZIk'
tRp42
ag3
(g4
(S'S11'
I0
I1
tRp43
(I3
S'|'
NNNI11
I1
I0
tbS'txjqbr6FoZs'
tRp44
ag3
(g4
(S'S11'
I0
I1
tRp45
(I3
S'|'
NNNI11
I1
I0
tbS'jVayR0VClxQ'
tRp46
ag3
(g4
(S'S11'
I0
I1
tRp47
(I3
S'|'
NNNI11
I1
I0
tbS'D5cQWqYcBAE'
tRp48
ag3
(g4
(S'S6'
I0
I1
tRp49
(I3
S'|'
NNNI6
I1
I0
tbS'214095'
tRp50
ag3
(g4
(S'S11'
I0
I1
tRp51
(I3
S'|'
NNNI11
I1
I0
tbS'Z3fcd1wdzr0'
tRp52
ag3
(g4
(S'S11'
I0
I1
tRp53
(I3
S'|'
NNNI11
I1
I0
tbS'kjQAkrdbREk'
tRp54
ag3
(g4
(S'S5'
I0
I1
tRp55
(I3
S'|'
NNNI5
I1
I0
tbS'81538'
tRp56
ag3
(g4
(S'S11'
I0
I1
tRp57
(I3
S'|'
NNNI11
I1
I0
tbS'mpfSRGHFY0g'
tRp58
ag3
(g4
(S'S11'
I0
I1
tRp59
(I3
S'|'
NNNI11
I1
I0
tbS'pqAGD3ijMPw'
tRp60
ag3
(g4
(S'S11'
I0
I1
tRp61
(I3
S'|'
NNNI11
I1
I0
tbS'jQ3EmbRIe58'
tRp62
ag3
(g4
(S'S11'
I0
I1
tRp63
(I3
S'|'
NNNI11
I1
I0
tbS'CHh6hWo1AFE'
tRp64
ag3
(g4
(S'S11'
I0
I1
tRp65
(I3
S'|'
NNNI11
I1
I0
tbS'zqkawTdHN5s'
tRp66
ag3
(g4
(S'S11'
I0
I1
tRp67
(I3
S'|'
NNNI11
I1
I0
tbS'-ZgjBOA1Yhw'
tRp68
ag3
(g4
(S'S11'
I0
I1
tRp69
(I3
S'|'
NNNI11
I1
I0
tbS'rz4Ax6xfZHQ'
tRp70
ag3
(g4
(S'S11'
I0
I1
tRp71
(I3
S'|'
NNNI11
I1
I0
tbS'qyJiDgtj6YE'
tRp72
ag3
(g4
(S'S11'
I0
I1
tRp73
(I3
S'|'
NNNI11
I1
I0
tbS'UTNP1roJV3I'
tRp74
ag3
(g4
(S'S11'
I0
I1
tRp75
(I3
S'|'
NNNI11
I1
I0
tbS'flGZteJUNYU'
tRp76
ag3
(g4
(S'S6'
I0
I1
tRp77
(I3
S'|'
NNNI6
I1
I0
tbS'273531'
tRp78
ag3
(g4
(S'S11'
I0
I1
tRp79
(I3
S'|'
NNNI11
I1
I0
tbS'QNxiqu1y1N0'
tRp80
ag3
(g4
(S'S6'
I0
I1
tRp81
(I3
S'|'
NNNI6
I1
I0
tbS'270665'
tRp82
ag3
(g4
(S'S11'
I0
I1
tRp83
(I3
S'|'
NNNI11
I1
I0
tbS'hkGN5q3OOCE'
tRp84
ag3
(g4
(S'S5'
I0
I1
tRp85
(I3
S'|'
NNNI5
I1
I0
tbS'57618'
tRp86
ag3
(g4
(S'S11'
I0
I1
tRp87
(I3
S'|'
NNNI11
I1
I0
tbS'vYOr36tdcpc'
tRp88
ag3
(g4
(S'S11'
I0
I1
tRp89
(I3
S'|'
NNNI11
I1
I0
tbS'6T1GHj7qwYs'
tRp90
ag3
(g4
(S'S6'
I0
I1
tRp91
(I3
S'|'
NNNI6
I1
I0
tbS'220548'
tRp92
ag3
(g4
(S'S11'
I0
I1
tRp93
(I3
S'|'
NNNI11
I1
I0
tbS'Sb2xMPwNKPo'
tRp94
ag3
(g4
(S'S6'
I0
I1
tRp95
(I3
S'|'
NNNI6
I1
I0
tbS'270449'
tRp96
ag3
(g4
(S'S11'
I0
I1
tRp97
(I3
S'|'
NNNI11
I1
I0
tbS'y-nEcwAyQos'
tRp98
ag3
(g4
(S'S6'
I0
I1
tRp99
(I3
S'|'
NNNI6
I1
I0
tbS'270444'
tRp100
ag3
(g4
(S'S11'
I0
I1
tRp101
(I3
S'|'
NNNI11
I1
I0
tbS'FNbULlE9RKg'
tRp102
ag3
(g4
(S'S11'
I0
I1
tRp103
(I3
S'|'
NNNI11
I1
I0
tbS'Wn8nz8GPKkI'
tRp104
ag3
(g4
(S'S11'
I0
I1
tRp105
(I3
S'|'
NNNI11
I1
I0
tbS'mzTHW2dtbs4'
tRp106
ag3
(g4
(S'S11'
I0
I1
tRp107
(I3
S'|'
NNNI11
I1
I0
tbS'6TKaGMkO69E'
tRp108
ag3
(g4
(S'S11'
I0
I1
tRp109
(I3
S'|'
NNNI11
I1
I0
tbS'YmGfjU5PGyE'
tRp110
ag3
(g4
(S'S11'
I0
I1
tRp111
(I3
S'|'
NNNI11
I1
I0
tbS'Zr3psuFQoDY'
tRp112
ag3
(g4
(S'S11'
I0
I1
tRp113
(I3
S'|'
NNNI11
I1
I0
tbS'3f6xCzKx9CA'
tRp114
ag3
(g4
(S'S11'
I0
I1
tRp115
(I3
S'|'
NNNI11
I1
I0
tbS'T4e4Ba1sRg0'
tRp116
ag3
(g4
(S'S11'
I0
I1
tRp117
(I3
S'|'
NNNI11
I1
I0
tbS'cM1Zuji24dI'
tRp118
ag3
(g4
(S'S11'
I0
I1
tRp119
(I3
S'|'
NNNI11
I1
I0
tbS'19k6sEC7814'
tRp120
ag3
(g4
(S'S11'
I0
I1
tRp121
(I3
S'|'
NNNI11
I1
I0
tbS'YrPXbGBvqGo'
tRp122
ag3
(g4
(S'S11'
I0
I1
tRp123
(I3
S'|'
NNNI11
I1
I0
tbS'hGRRlXfH0BY'
tRp124
ag3
(g4
(S'S6'
I0
I1
tRp125
(I3
S'|'
NNNI6
I1
I0
tbS'254298'
tRp126
ag3
(g4
(S'S6'
I0
I1
tRp127
(I3
S'|'
NNNI6
I1
I0
tbS'192799'
tRp128
ag3
(g4
(S'S5'
I0
I1
tRp129
(I3
S'|'
NNNI5
I1
I0
tbS'70710'
tRp130
ag3
(g4
(S'S11'
I0
I1
tRp131
(I3
S'|'
NNNI11
I1
I0
tbS'CIqRibqChDQ'
tRp132
ag3
(g4
(S'S11'
I0
I1
tRp133
(I3
S'|'
NNNI11
I1
I0
tbS'AIPqRuTjI4E'
tRp134
ag3
(g4
(S'S11'
I0
I1
tRp135
(I3
S'|'
NNNI11
I1
I0
tbS'dSax_7klbfE'
tRp136
ag3
(g4
(S'S11'
I0
I1
tRp137
(I3
S'|'
NNNI11
I1
I0
tbS'gcGZp9JX_qE'
tRp138
ag3
(g4
(S'S11'
I0
I1
tRp139
(I3
S'|'
NNNI11
I1
I0
tbS'zoPOeViAdOo'
tRp140
ag3
(g4
(S'S11'
I0
I1
tRp141
(I3
S'|'
NNNI11
I1
I0
tbS'3B1zIUj-k3o'
tRp142
ag3
(g4
(S'S11'
I0
I1
tRp143
(I3
S'|'
NNNI11
I1
I0
tbS'MmJD4KBT0nk'
tRp144
ag3
(g4
(S'S11'
I0
I1
tRp145
(I3
S'|'
NNNI11
I1
I0
tbS'RadU51t1kL0'
tRp146
ag3
(g4
(S'S11'
I0
I1
tRp147
(I3
S'|'
NNNI11
I1
I0
tbS'T1icdxz0TNs'
tRp148
ag3
(g4
(S'S11'
I0
I1
tRp149
(I3
S'|'
NNNI11
I1
I0
tbS'iREkcXde5ds'
tRp150
ag3
(g4
(S'S5'
I0
I1
tRp151
(I3
S'|'
NNNI5
I1
I0
tbS'40181'
tRp152
ag3
(g4
(S'S11'
I0
I1
tRp153
(I3
S'|'
NNNI11
I1
I0
tbS'k1ca_xbhohk'
tRp154
ag3
(g4
(S'S11'
I0
I1
tRp155
(I3
S'|'
NNNI11
I1
I0
tbS'wLrgvSYLPUI'
tRp156
ag3
(g4
(S'S5'
I0
I1
tRp157
(I3
S'|'
NNNI5
I1
I0
tbS'41692'
tRp158
ag3
(g4
(S'S11'
I0
I1
tRp159
(I3
S'|'
NNNI11
I1
I0
tbS'8Lmqsakmw3M'
tRp160
ag3
(g4
(S'S11'
I0
I1
tRp161
(I3
S'|'
NNNI11
I1
I0
tbS'PHJ8eybXJdw'
tRp162
ag3
(g4
(S'S11'
I0
I1
tRp163
(I3
S'|'
NNNI11
I1
I0
tbS'CuFLRnu4FQ8'
tRp164
ag3
(g4
(S'S11'
I0
I1
tRp165
(I3
S'|'
NNNI11
I1
I0
tbS'a7HHg_JygJo'
tRp166
ag3
(g4
(S'S11'
I0
I1
tRp167
(I3
S'|'
NNNI11
I1
I0
tbS'dqragS38hCk'
tRp168
ag3
(g4
(S'S11'
I0
I1
tRp169
(I3
S'|'
NNNI11
I1
I0
tbS'FMif4HMBZjo'
tRp170
ag3
(g4
(S'S11'
I0
I1
tRp171
(I3
S'|'
NNNI11
I1
I0
tbS'N188QSyfmeQ'
tRp172
ag3
(g4
(S'S11'
I0
I1
tRp173
(I3
S'|'
NNNI11
I1
I0
tbS'f49boM5fb8U'
tRp174
ag3
(g4
(S'S11'
I0
I1
tRp175
(I3
S'|'
NNNI11
I1
I0
tbS'owT0_Xfu8a0'
tRp176
ag3
(g4
(S'S6'
I0
I1
tRp177
(I3
S'|'
NNNI6
I1
I0
tbS'112223'
tRp178
ag3
(g4
(S'S11'
I0
I1
tRp179
(I3
S'|'
NNNI11
I1
I0
tbS'3DgOMTs3A1E'
tRp180
ag3
(g4
(S'S11'
I0
I1
tRp181
(I3
S'|'
NNNI11
I1
I0
tbS'VA6lVHlj5d0'
tRp182
ag3
(g4
(S'S11'
I0
I1
tRp183
(I3
S'|'
NNNI11
I1
I0
tbS'VWik5oKP6IU'
tRp184
ag3
(g4
(S'S11'
I0
I1
tRp185
(I3
S'|'
NNNI11
I1
I0
tbS'PohW-isYMK0'
tRp186
ag3
(g4
(S'S6'
I0
I1
tRp187
(I3
S'|'
NNNI6
I1
I0
tbS'248837'
tRp188
ag3
(g4
(S'S11'
I0
I1
tRp189
(I3
S'|'
NNNI11
I1
I0
tbS'IKXWSNf4m2k'
tRp190
ag3
(g4
(S'S11'
I0
I1
tRp191
(I3
S'|'
NNNI11
I1
I0
tbS'bhPB19tr-JY'
tRp192
ag3
(g4
(S'S6'
I0
I1
tRp193
(I3
S'|'
NNNI6
I1
I0
tbS'251826'
tRp194
ag3
(g4
(S'S11'
I0
I1
tRp195
(I3
S'|'
NNNI11
I1
I0
tbS'omBcvw7izuM'
tRp196
ag3
(g4
(S'S11'
I0
I1
tRp197
(I3
S'|'
NNNI11
I1
I0
tbS'IB0lGIxP8YY'
tRp198
ag3
(g4
(S'S11'
I0
I1
tRp199
(I3
S'|'
NNNI11
I1
I0
tbS'07Z16yRBFUQ'
tRp200
ag3
(g4
(S'S11'
I0
I1
tRp201
(I3
S'|'
NNNI11
I1
I0
tbS'yNiJGh7JpLM'
tRp202
ag3
(g4
(S'S11'
I0
I1
tRp203
(I3
S'|'
NNNI11
I1
I0
tbS'0vXaXWx7Rvo'
tRp204
ag3
(g4
(S'S11'
I0
I1
tRp205
(I3
S'|'
NNNI11
I1
I0
tbS'5FbzKjx3Lho'
tRp206
ag3
(g4
(S'S11'
I0
I1
tRp207
(I3
S'|'
NNNI11
I1
I0
tbS'NG7QLq4XlWo'
tRp208
ag3
(g4
(S'S11'
I0
I1
tRp209
(I3
S'|'
NNNI11
I1
I0
tbS'kf3fZcx8nIo'
tRp210
ag3
(g4
(S'S11'
I0
I1
tRp211
(I3
S'|'
NNNI11
I1
I0
tbS'n5MU2-GFjo8'
tRp212
ag3
(g4
(S'S6'
I0
I1
tRp213
(I3
S'|'
NNNI6
I1
I0
tbS'189966'
tRp214
ag3
(g4
(S'S11'
I0
I1
tRp215
(I3
S'|'
NNNI11
I1
I0
tbS'tv8IhQZQuJI'
tRp216
ag3
(g4
(S'S11'
I0
I1
tRp217
(I3
S'|'
NNNI11
I1
I0
tbS'lTfsqoo-jKg'
tRp218
ag3
(g4
(S'S11'
I0
I1
tRp219
(I3
S'|'
NNNI11
I1
I0
tbS'ejDe6hQWZOk'
tRp220
ag3
(g4
(S'S11'
I0
I1
tRp221
(I3
S'|'
NNNI11
I1
I0
tbS'jV6qzF2YROc'
tRp222
ag3
(g4
(S'S11'
I0
I1
tRp223
(I3
S'|'
NNNI11
I1
I0
tbS'_t8ETpf2LnM'
tRp224
ag3
(g4
(S'S11'
I0
I1
tRp225
(I3
S'|'
NNNI11
I1
I0
tbS'kZfcQ4a0kx4'
tRp226
ag3
(g4
(S'S11'
I0
I1
tRp227
(I3
S'|'
NNNI11
I1
I0
tbS'xsiHAO0gq74'
tRp228
ag3
(g4
(S'S11'
I0
I1
tRp229
(I3
S'|'
NNNI11
I1
I0
tbS'CT7QOWbhfv4'
tRp230
ag3
(g4
(S'S11'
I0
I1
tRp231
(I3
S'|'
NNNI11
I1
I0
tbS'wd-LTpCtAzw'
tRp232
ag3
(g4
(S'S11'
I0
I1
tRp233
(I3
S'|'
NNNI11
I1
I0
tbS'qEkFReBuwxc'
tRp234
ag3
(g4
(S'S11'
I0
I1
tRp235
(I3
S'|'
NNNI11
I1
I0
tbS'v3l56fl6aJM'
tRp236
ag3
(g4
(S'S11'
I0
I1
tRp237
(I3
S'|'
NNNI11
I1
I0
tbS'nD1R4UedEDo'
tRp238
ag3
(g4
(S'S11'
I0
I1
tRp239
(I3
S'|'
NNNI11
I1
I0
tbS'bYt4wybVLRQ'
tRp240
ag3
(g4
(S'S6'
I0
I1
tRp241
(I3
S'|'
NNNI6
I1
I0
tbS'233356'
tRp242
ag3
(g4
(S'S11'
I0
I1
tRp243
(I3
S'|'
NNNI11
I1
I0
tbS'afCsKTHteg4'
tRp244
ag3
(g4
(S'S11'
I0
I1
tRp245
(I3
S'|'
NNNI11
I1
I0
tbS'wrQVnClcNPM'
tRp246
ag3
(g4
(S'S11'
I0
I1
tRp247
(I3
S'|'
NNNI11
I1
I0
tbS'2mWPHvbKzL8'
tRp248
ag3
(g4
(S'S11'
I0
I1
tRp249
(I3
S'|'
NNNI11
I1
I0
tbS'mud6tEqFiEM'
tRp250
ag3
(g4
(S'S11'
I0
I1
tRp251
(I3
S'|'
NNNI11
I1
I0
tbS'_MGd6t9eZP8'
tRp252
ag3
(g4
(S'S6'
I0
I1
tRp253
(I3
S'|'
NNNI6
I1
I0
tbS'267278'
tRp254
ag3
(g4
(S'S11'
I0
I1
tRp255
(I3
S'|'
NNNI11
I1
I0
tbS'34-ogj6rh6w'
tRp256
ag3
(g4
(S'S11'
I0
I1
tRp257
(I3
S'|'
NNNI11
I1
I0
tbS'yZWH2P-h0jo'
tRp258
ag3
(g4
(S'S11'
I0
I1
tRp259
(I3
S'|'
NNNI11
I1
I0
tbS'DGeBPk1op3E'
tRp260
ag3
(g4
(S'S11'
I0
I1
tRp261
(I3
S'|'
NNNI11
I1
I0
tbS'J3-NEG8uoiE'
tRp262
ag3
(g4
(S'S6'
I0
I1
tRp263
(I3
S'|'
NNNI6
I1
I0
tbS'272375'
tRp264
ag3
(g4
(S'S11'
I0
I1
tRp265
(I3
S'|'
NNNI11
I1
I0
tbS'sU40irMa-so'
tRp266
ag3
(g4
(S'S11'
I0
I1
tRp267
(I3
S'|'
NNNI11
I1
I0
tbS'BNaRO9g8ugQ'
tRp268
ag3
(g4
(S'S11'
I0
I1
tRp269
(I3
S'|'
NNNI11
I1
I0
tbS'-lzEya4AM_4'
tRp270
ag3
(g4
(S'S11'
I0
I1
tRp271
(I3
S'|'
NNNI11
I1
I0
tbS'sn1fEo72gJM'
tRp272
ag3
(g4
(S'S11'
I0
I1
tRp273
(I3
S'|'
NNNI11
I1
I0
tbS'C3lDRFu1ZcI'
tRp274
ag3
(g4
(S'S11'
I0
I1
tRp275
(I3
S'|'
NNNI11
I1
I0
tbS'pu1C7tmYHxI'
tRp276
ag3
(g4
(S'S11'
I0
I1
tRp277
(I3
S'|'
NNNI11
I1
I0
tbS'fhY2vbnjuWY'
tRp278
ag3
(g4
(S'S6'
I0
I1
tRp279
(I3
S'|'
NNNI6
I1
I0
tbS'184784'
tRp280
ag3
(g4
(S'S6'
I0
I1
tRp281
(I3
S'|'
NNNI6
I1
I0
tbS'245322'
tRp282
ag3
(g4
(S'S11'
I0
I1
tRp283
(I3
S'|'
NNNI11
I1
I0
tbS'-wny0OAz3g8'
tRp284
ag3
(g4
(S'S11'
I0
I1
tRp285
(I3
S'|'
NNNI11
I1
I0
tbS'LAj3rqJvS3s'
tRp286
ag3
(g4
(S'S11'
I0
I1
tRp287
(I3
S'|'
NNNI11
I1
I0
tbS'XsEPZydHWdo'
tRp288
ag3
(g4
(S'S11'
I0
I1
tRp289
(I3
S'|'
NNNI11
I1
I0
tbS'wVdoIjg3ZFQ'
tRp290
ag3
(g4
(S'S5'
I0
I1
tRp291
(I3
S'|'
NNNI5
I1
I0
tbS'72385'
tRp292
ag3
(g4
(S'S11'
I0
I1
tRp293
(I3
S'|'
NNNI11
I1
I0
tbS'lbx3eu8LUl8'
tRp294
ag3
(g4
(S'S11'
I0
I1
tRp295
(I3
S'|'
NNNI11
I1
I0
tbS'zR62DCEMWgs'
tRp296
ag3
(g4
(S'S11'
I0
I1
tRp297
(I3
S'|'
NNNI11
I1
I0
tbS'7oFimEZJQ_A'
tRp298
ag3
(g4
(S'S11'
I0
I1
tRp299
(I3
S'|'
NNNI11
I1
I0
tbS'liJO1yIFsJs'
tRp300
ag3
(g4
(S'S11'
I0
I1
tRp301
(I3
S'|'
NNNI11
I1
I0
tbS'FOMXt3lStco'
tRp302
ag3
(g4
(S'S11'
I0
I1
tRp303
(I3
S'|'
NNNI11
I1
I0
tbS'FWBCTZiijEM'
tRp304
ag3
(g4
(S'S11'
I0
I1
tRp305
(I3
S'|'
NNNI11
I1
I0
tbS'bUFAN2TgPaU'
tRp306
ag3
(g4
(S'S5'
I0
I1
tRp307
(I3
S'|'
NNNI5
I1
I0
tbS'96099'
tRp308
ag3
(g4
(S'S11'
I0
I1
tRp309
(I3
S'|'
NNNI11
I1
I0
tbS'S8yP6lBOdKo'
tRp310
ag3
(g4
(S'S6'
I0
I1
tRp311
(I3
S'|'
NNNI6
I1
I0
tbS'244817'
tRp312
ag3
(g4
(S'S11'
I0
I1
tRp313
(I3
S'|'
NNNI11
I1
I0
tbS'cSraseCDilY'
tRp314
ag3
(g4
(S'S11'
I0
I1
tRp315
(I3
S'|'
NNNI11
I1
I0
tbS'bVhWpCvpSs4'
tRp316
ag3
(g4
(S'S11'
I0
I1
tRp317
(I3
S'|'
NNNI11
I1
I0
tbS'Wo1RxRjXyYw'
tRp318
ag3
(g4
(S'S6'
I0
I1
tRp319
(I3
S'|'
NNNI6
I1
I0
tbS'131871'
tRp320
ag3
(g4
(S'S11'
I0
I1
tRp321
(I3
S'|'
NNNI11
I1
I0
tbS'jcQi90n008o'
tRp322
ag3
(g4
(S'S11'
I0
I1
tRp323
(I3
S'|'
NNNI11
I1
I0
tbS'qed3medhsj4'
tRp324
ag3
(g4
(S'S11'
I0
I1
tRp325
(I3
S'|'
NNNI11
I1
I0
tbS'rsQRiALH5FU'
tRp326
ag3
(g4
(S'S11'
I0
I1
tRp327
(I3
S'|'
NNNI11
I1
I0
tbS'hfvmQuhqMmY'
tRp328
ag3
(g4
(S'S11'
I0
I1
tRp329
(I3
S'|'
NNNI11
I1
I0
tbS'iWBx0CP9JqA'
tRp330
ag3
(g4
(S'S11'
I0
I1
tRp331
(I3
S'|'
NNNI11
I1
I0
tbS'SMr2DprlLu4'
tRp332
ag3
(g4
(S'S11'
I0
I1
tRp333
(I3
S'|'
NNNI11
I1
I0
tbS'r8OPmbZZlpE'
tRp334
ag3
(g4
(S'S11'
I0
I1
tRp335
(I3
S'|'
NNNI11
I1
I0
tbS'FRKwvmrwrZA'
tRp336
ag3
(g4
(S'S11'
I0
I1
tRp337
(I3
S'|'
NNNI11
I1
I0
tbS'08d4NTXkSxw'
tRp338
ag3
(g4
(S'S11'
I0
I1
tRp339
(I3
S'|'
NNNI11
I1
I0
tbS'0SfejBuLgFo'
tRp340
ag3
(g4
(S'S11'
I0
I1
tRp341
(I3
S'|'
NNNI11
I1
I0
tbS'pbFwuNCQlH8'
tRp342
ag3
(g4
(S'S11'
I0
I1
tRp343
(I3
S'|'
NNNI11
I1
I0
tbS'IAmZ5iWHxw4'
tRp344
ag3
(g4
(S'S11'
I0
I1
tRp345
(I3
S'|'
NNNI11
I1
I0
tbS'Q8naC1qriIU'
tRp346
ag3
(g4
(S'S6'
I0
I1
tRp347
(I3
S'|'
NNNI6
I1
I0
tbS'276217'
tRp348
ag3
(g4
(S'S11'
I0
I1
tRp349
(I3
S'|'
NNNI11
I1
I0
tbS'R8Kw_4Y9E0s'
tRp350
ag3
(g4
(S'S11'
I0
I1
tRp351
(I3
S'|'
NNNI11
I1
I0
tbS'ytXVSpPfKwA'
tRp352
ag3
(g4
(S'S11'
I0
I1
tRp353
(I3
S'|'
NNNI11
I1
I0
tbS'SH0wXyhsx9s'
tRp354
ag3
(g4
(S'S11'
I0
I1
tRp355
(I3
S'|'
NNNI11
I1
I0
tbS'yALhl-lMBxk'
tRp356
ag3
(g4
(S'S11'
I0
I1
tRp357
(I3
S'|'
NNNI11
I1
I0
tbS'3QcqpwQiiLs'
tRp358
ag3
(g4
(S'S11'
I0
I1
tRp359
(I3
S'|'
NNNI11
I1
I0
tbS'vM7m581tHn0'
tRp360
ag3
(g4
(S'S5'
I0
I1
tRp361
(I3
S'|'
NNNI5
I1
I0
tbS'46497'
tRp362
ag3
(g4
(S'S11'
I0
I1
tRp363
(I3
S'|'
NNNI11
I1
I0
tbS'4CKhrjuuofk'
tRp364
ag3
(g4
(S'S11'
I0
I1
tRp365
(I3
S'|'
NNNI11
I1
I0
tbS'aNOuoSVlunM'
tRp366
ag3
(g4
(S'S11'
I0
I1
tRp367
(I3
S'|'
NNNI11
I1
I0
tbS'jZTe5cbwwEE'
tRp368
ag3
(g4
(S'S11'
I0
I1
tRp369
(I3
S'|'
NNNI11
I1
I0
tbS'w4xIyGs-3wc'
tRp370
ag3
(g4
(S'S11'
I0
I1
tRp371
(I3
S'|'
NNNI11
I1
I0
tbS'c6wuh0NRG1s'
tRp372
ag3
(g4
(S'S11'
I0
I1
tRp373
(I3
S'|'
NNNI11
I1
I0
tbS'HD17J-FvROQ'
tRp374
ag3
(g4
(S'S5'
I0
I1
tRp375
(I3
S'|'
NNNI5
I1
I0
tbS'81615'
tRp376
ag3
(g4
(S'S11'
I0
I1
tRp377
(I3
S'|'
NNNI11
I1
I0
tbS'x7ZR70cTa84'
tRp378
ag3
(g4
(S'S11'
I0
I1
tRp379
(I3
S'|'
NNNI11
I1
I0
tbS'kRs39SO-neY'
tRp380
ag3
(g4
(S'S11'
I0
I1
tRp381
(I3
S'|'
NNNI11
I1
I0
tbS'Te-vgmYgGM4'
tRp382
ag3
(g4
(S'S11'
I0
I1
tRp383
(I3
S'|'
NNNI11
I1
I0
tbS'Drhrzj1yhVs'
tRp384
ag3
(g4
(S'S6'
I0
I1
tRp385
(I3
S'|'
NNNI6
I1
I0
tbS'154449'
tRp386
ag3
(g4
(S'S6'
I0
I1
tRp387
(I3
S'|'
NNNI6
I1
I0
tbS'220200'
tRp388
ag3
(g4
(S'S11'
I0
I1
tRp389
(I3
S'|'
NNNI11
I1
I0
tbS'Xq7zLxYHxd8'
tRp390
ag3
(g4
(S'S11'
I0
I1
tRp391
(I3
S'|'
NNNI11
I1
I0
tbS'I_r2CP56toU'
tRp392
ag3
(g4
(S'S11'
I0
I1
tRp393
(I3
S'|'
NNNI11
I1
I0
tbS'_HanACduNJk'
tRp394
ag3
(g4
(S'S11'
I0
I1
tRp395
(I3
S'|'
NNNI11
I1
I0
tbS'f-ZNjqLlrm4'
tRp396
ag3
(g4
(S'S6'
I0
I1
tRp397
(I3
S'|'
NNNI6
I1
I0
tbS'122602'
tRp398
ag3
(g4
(S'S11'
I0
I1
tRp399
(I3
S'|'
NNNI11
I1
I0
tbS'9zWeMrfr-l0'
tRp400
ag3
(g4
(S'S11'
I0
I1
tRp401
(I3
S'|'
NNNI11
I1
I0
tbS'JvgofTcCSEc'
tRp402
ag3
(g4
(S'S11'
I0
I1
tRp403
(I3
S'|'
NNNI11
I1
I0
tbS'OPXmk49KyiU'
tRp404
ag3
(g4
(S'S11'
I0
I1
tRp405
(I3
S'|'
NNNI11
I1
I0
tbS'4poXF3xo6Z8'
tRp406
ag3
(g4
(S'S6'
I0
I1
tRp407
(I3
S'|'
NNNI6
I1
I0
tbS'208416'
tRp408
ag3
(g4
(S'S11'
I0
I1
tRp409
(I3
S'|'
NNNI11
I1
I0
tbS'SqtZGF_f63s'
tRp410
ag3
(g4
(S'S11'
I0
I1
tRp411
(I3
S'|'
NNNI11
I1
I0
tbS'HUOMbK1x7MI'
tRp412
ag3
(g4
(S'S11'
I0
I1
tRp413
(I3
S'|'
NNNI11
I1
I0
tbS'5OLO6zEbrVw'
tRp414
ag3
(g4
(S'S11'
I0
I1
tRp415
(I3
S'|'
NNNI11
I1
I0
tbS'ai7G98thPpk'
tRp416
ag3
(g4
(S'S11'
I0
I1
tRp417
(I3
S'|'
NNNI11
I1
I0
tbS'It6xg0WcqJ0'
tRp418
ag3
(g4
(S'S5'
I0
I1
tRp419
(I3
S'|'
NNNI5
I1
I0
tbS'44780'
tRp420
ag3
(g4
(S'S11'
I0
I1
tRp421
(I3
S'|'
NNNI11
I1
I0
tbS'xn9_4n4NpEw'
tRp422
ag3
(g4
(S'S11'
I0
I1
tRp423
(I3
S'|'
NNNI11
I1
I0
tbS'olcPEN9x5VY'
tRp424
ag3
(g4
(S'S11'
I0
I1
tRp425
(I3
S'|'
NNNI11
I1
I0
tbS'wgCSuviySwg'
tRp426
ag3
(g4
(S'S11'
I0
I1
tRp427
(I3
S'|'
NNNI11
I1
I0
tbS'dsob2MgUPpA'
tRp428
ag3
(g4
(S'S11'
I0
I1
tRp429
(I3
S'|'
NNNI11
I1
I0
tbS'BXqnWuDA3H4'
tRp430
ag3
(g4
(S'S11'
I0
I1
tRp431
(I3
S'|'
NNNI11
I1
I0
tbS'G8p4QMjLUXI'
tRp432
ag3
(g4
(S'S11'
I0
I1
tRp433
(I3
S'|'
NNNI11
I1
I0
tbS'CE9yV4SearE'
tRp434
ag3
(g4
(S'S11'
I0
I1
tRp435
(I3
S'|'
NNNI11
I1
I0
tbS'wR3zalLV_6c'
tRp436
ag3
(g4
(S'S11'
I0
I1
tRp437
(I3
S'|'
NNNI11
I1
I0
tbS'BDCFV4EqHjY'
tRp438
ag3
(g4
(S'S11'
I0
I1
tRp439
(I3
S'|'
NNNI11
I1
I0
tbS'npIVLL_fTf0'
tRp440
ag3
(g4
(S'S11'
I0
I1
tRp441
(I3
S'|'
NNNI11
I1
I0
tbS'RIAEgUKtzxw'
tRp442
ag3
(g4
(S'S11'
I0
I1
tRp443
(I3
S'|'
NNNI11
I1
I0
tbS'Gbg8qiKQkhM'
tRp444
ag3
(g4
(S'S11'
I0
I1
tRp445
(I3
S'|'
NNNI11
I1
I0
tbS'nTBKtwqPIYw'
tRp446
ag3
(g4
(S'S6'
I0
I1
tRp447
(I3
S'|'
NNNI6
I1
I0
tbS'278474'
tRp448
ag3
(g4
(S'S11'
I0
I1
tRp449
(I3
S'|'
NNNI11
I1
I0
tbS'3u_Joh0WJdw'
tRp450
ag3
(g4
(S'S11'
I0
I1
tRp451
(I3
S'|'
NNNI11
I1
I0
tbS'w1MxXu5D7ho'
tRp452
ag3
(g4
(S'S11'
I0
I1
tRp453
(I3
S'|'
NNNI11
I1
I0
tbS'jlCFLG6rKKY'
tRp454
ag3
(g4
(S'S11'
I0
I1
tRp455
(I3
S'|'
NNNI11
I1
I0
tbS'Ta_IgA3XJ3s'
tRp456
ag3
(g4
(S'S6'
I0
I1
tRp457
(I3
S'|'
NNNI6
I1
I0
tbS'257531'
tRp458
ag3
(g4
(S'S11'
I0
I1
tRp459
(I3
S'|'
NNNI11
I1
I0
tbS'NDMAVMZyISM'
tRp460
ag3
(g4
(S'S11'
I0
I1
tRp461
(I3
S'|'
NNNI11
I1
I0
tbS'5eA5HpyFsIk'
tRp462
ag3
(g4
(S'S11'
I0
I1
tRp463
(I3
S'|'
NNNI11
I1
I0
tbS'JkHxzOWOLfs'
tRp464
ag3
(g4
(S'S6'
I0
I1
tRp465
(I3
S'|'
NNNI6
I1
I0
tbS'238889'
tRp466
ag3
(g4
(S'S11'
I0
I1
tRp467
(I3
S'|'
NNNI11
I1
I0
tbS'QDRtKv8PvFs'
tRp468
ag3
(g4
(S'S6'
I0
I1
tRp469
(I3
S'|'
NNNI6
I1
I0
tbS'112631'
tRp470
ag3
(g4
(S'S11'
I0
I1
tRp471
(I3
S'|'
NNNI11
I1
I0
tbS'5VKMctXBN9M'
tRp472
ag3
(g4
(S'S11'
I0
I1
tRp473
(I3
S'|'
NNNI11
I1
I0
tbS'44MVdpDEQJs'
tRp474
ag3
(g4
(S'S11'
I0
I1
tRp475
(I3
S'|'
NNNI11
I1
I0
tbS'3w9I5SBhHNc'
tRp476
ag3
(g4
(S'S11'
I0
I1
tRp477
(I3
S'|'
NNNI11
I1
I0
tbS'DZIFCYOhosQ'
tRp478
ag3
(g4
(S'S11'
I0
I1
tRp479
(I3
S'|'
NNNI11
I1
I0
tbS'hIQhkTjNaQc'
tRp480
ag3
(g4
(S'S11'
I0
I1
tRp481
(I3
S'|'
NNNI11
I1
I0
tbS'mxFU6TrHChY'
tRp482
ag3
(g4
(S'S11'
I0
I1
tRp483
(I3
S'|'
NNNI11
I1
I0
tbS'Va54WZgPTdY'
tRp484
ag3
(g4
(S'S11'
I0
I1
tRp485
(I3
S'|'
NNNI11
I1
I0
tbS'Y6s_vuUUsJM'
tRp486
ag3
(g4
(S'S11'
I0
I1
tRp487
(I3
S'|'
NNNI11
I1
I0
tbS'kmAisuAFckw'
tRp488
ag3
(g4
(S'S11'
I0
I1
tRp489
(I3
S'|'
NNNI11
I1
I0
tbS'mI50zj8cTNw'
tRp490
ag3
(g4
(S'S11'
I0
I1
tRp491
(I3
S'|'
NNNI11
I1
I0
tbS'YcyHQQXGXWA'
tRp492
ag3
(g4
(S'S11'
I0
I1
tRp493
(I3
S'|'
NNNI11
I1
I0
tbS'OEMSGahoCmM'
tRp494
ag3
(g4
(S'S11'
I0
I1
tRp495
(I3
S'|'
NNNI11
I1
I0
tbS'Nd55vByy2F8'
tRp496
ag3
(g4
(S'S11'
I0
I1
tRp497
(I3
S'|'
NNNI11
I1
I0
tbS'ipLoS44xfO4'
tRp498
ag3
(g4
(S'S11'
I0
I1
tRp499
(I3
S'|'
NNNI11
I1
I0
tbS'io85pRFj_dw'
tRp500
ag3
(g4
(S'S11'
I0
I1
tRp501
(I3
S'|'
NNNI11
I1
I0
tbS'54CM1_GA-uw'
tRp502
ag3
(g4
(S'S11'
I0
I1
tRp503
(I3
S'|'
NNNI11
I1
I0
tbS'JAbFsRxxnFo'
tRp504
ag3
(g4
(S'S11'
I0
I1
tRp505
(I3
S'|'
NNNI11
I1
I0
tbS'eY64P27khzk'
tRp506
ag3
(g4
(S'S11'
I0
I1
tRp507
(I3
S'|'
NNNI11
I1
I0
tbS'nHMHePX9WoU'
tRp508
ag3
(g4
(S'S6'
I0
I1
tRp509
(I3
S'|'
NNNI6
I1
I0
tbS'230252'
tRp510
ag3
(g4
(S'S11'
I0
I1
tRp511
(I3
S'|'
NNNI11
I1
I0
tbS'OwYfPi9St0w'
tRp512
ag3
(g4
(S'S11'
I0
I1
tRp513
(I3
S'|'
NNNI11
I1
I0
tbS'1bzS0YF5hfs'
tRp514
ag3
(g4
(S'S11'
I0
I1
tRp515
(I3
S'|'
NNNI11
I1
I0
tbS'n2BuwHbdilY'
tRp516
ag3
(g4
(S'S11'
I0
I1
tRp517
(I3
S'|'
NNNI11
I1
I0
tbS'kiR5zVo2zvU'
tRp518
ag3
(g4
(S'S11'
I0
I1
tRp519
(I3
S'|'
NNNI11
I1
I0
tbS'p18PVgfxook'
tRp520
ag3
(g4
(S'S11'
I0
I1
tRp521
(I3
S'|'
NNNI11
I1
I0
tbS'9-K1CXCXui4'
tRp522
ag3
(g4
(S'S6'
I0
I1
tRp523
(I3
S'|'
NNNI6
I1
I0
tbS'102168'
tRp524
ag3
(g4
(S'S11'
I0
I1
tRp525
(I3
S'|'
NNNI11
I1
I0
tbS'KF5wgQPp2yc'
tRp526
ag3
(g4
(S'S11'
I0
I1
tRp527
(I3
S'|'
NNNI11
I1
I0
tbS'7ifnoHhrMtA'
tRp528
ag3
(g4
(S'S11'
I0
I1
tRp529
(I3
S'|'
NNNI11
I1
I0
tbS'fI9KptYFZeg'
tRp530
ag3
(g4
(S'S11'
I0
I1
tRp531
(I3
S'|'
NNNI11
I1
I0
tbS'rBWeo_rEdcU'
tRp532
ag3
(g4
(S'S11'
I0
I1
tRp533
(I3
S'|'
NNNI11
I1
I0
tbS'fbHlBmq7Ipo'
tRp534
ag3
(g4
(S'S6'
I0
I1
tRp535
(I3
S'|'
NNNI6
I1
I0
tbS'298736'
tRp536
ag3
(g4
(S'S6'
I0
I1
tRp537
(I3
S'|'
NNNI6
I1
I0
tbS'275248'
tRp538
ag3
(g4
(S'S11'
I0
I1
tRp539
(I3
S'|'
NNNI11
I1
I0
tbS'R0uRDh-engU'
tRp540
ag3
(g4
(S'S11'
I0
I1
tRp541
(I3
S'|'
NNNI11
I1
I0
tbS'9pzn93kdP_g'
tRp542
ag3
(g4
(S'S11'
I0
I1
tRp543
(I3
S'|'
NNNI11
I1
I0
tbS'cXu56oK462o'
tRp544
ag3
(g4
(S'S11'
I0
I1
tRp545
(I3
S'|'
NNNI11
I1
I0
tbS'K9-KyChw8RM'
tRp546
ag3
(g4
(S'S11'
I0
I1
tRp547
(I3
S'|'
NNNI11
I1
I0
tbS'QMAztkqnvws'
tRp548
ag3
(g4
(S'S11'
I0
I1
tRp549
(I3
S'|'
NNNI11
I1
I0
tbS'o4b7hjQwpv0'
tRp550
ag3
(g4
(S'S11'
I0
I1
tRp551
(I3
S'|'
NNNI11
I1
I0
tbS'ERnYvxojeu0'
tRp552
ag3
(g4
(S'S11'
I0
I1
tRp553
(I3
S'|'
NNNI11
I1
I0
tbS'faXGVcVcVsE'
tRp554
ag3
(g4
(S'S11'
I0
I1
tRp555
(I3
S'|'
NNNI11
I1
I0
tbS'OAV6KKf60bQ'
tRp556
ag3
(g4
(S'S11'
I0
I1
tRp557
(I3
S'|'
NNNI11
I1
I0
tbS'x5xF4yu9Bos'
tRp558
ag3
(g4
(S'S11'
I0
I1
tRp559
(I3
S'|'
NNNI11
I1
I0
tbS'ggbV7YeSl7k'
tRp560
ag3
(g4
(S'S6'
I0
I1
tRp561
(I3
S'|'
NNNI6
I1
I0
tbS'238645'
tRp562
ag3
(g4
(S'S11'
I0
I1
tRp563
(I3
S'|'
NNNI11
I1
I0
tbS'RqOgkJbqFXg'
tRp564
ag3
(g4
(S'S11'
I0
I1
tRp565
(I3
S'|'
NNNI11
I1
I0
tbS'_K0okiLaF9I'
tRp566
ag3
(g4
(S'S11'
I0
I1
tRp567
(I3
S'|'
NNNI11
I1
I0
tbS'Gmhi58erY6k'
tRp568
ag3
(g4
(S'S11'
I0
I1
tRp569
(I3
S'|'
NNNI11
I1
I0
tbS'KmYG8zaRmOA'
tRp570
ag3
(g4
(S'S6'
I0
I1
tRp571
(I3
S'|'
NNNI6
I1
I0
tbS'129733'
tRp572
ag3
(g4
(S'S11'
I0
I1
tRp573
(I3
S'|'
NNNI11
I1
I0
tbS'h7p5URoookk'
tRp574
ag3
(g4
(S'S11'
I0
I1
tRp575
(I3
S'|'
NNNI11
I1
I0
tbS'nhD9WSEIspQ'
tRp576
ag3
(g4
(S'S11'
I0
I1
tRp577
(I3
S'|'
NNNI11
I1
I0
tbS'frNJdG0GkYw'
tRp578
ag3
(g4
(S'S11'
I0
I1
tRp579
(I3
S'|'
NNNI11
I1
I0
tbS'gZDyk95Xob4'
tRp580
ag3
(g4
(S'S11'
I0
I1
tRp581
(I3
S'|'
NNNI11
I1
I0
tbS'TahiuVpcROM'
tRp582
ag3
(g4
(S'S11'
I0
I1
tRp583
(I3
S'|'
NNNI11
I1
I0
tbS'FvoZgWvc3gc'
tRp584
ag3
(g4
(S'S11'
I0
I1
tRp585
(I3
S'|'
NNNI11
I1
I0
tbS'dYyg91d7zjY'
tRp586
ag3
(g4
(S'S11'
I0
I1
tRp587
(I3
S'|'
NNNI11
I1
I0
tbS'xyOa9ivNrg4'
tRp588
ag3
(g4
(S'S11'
I0
I1
tRp589
(I3
S'|'
NNNI11
I1
I0
tbS'7EWOMjaKlus'
tRp590
ag3
(g4
(S'S11'
I0
I1
tRp591
(I3
S'|'
NNNI11
I1
I0
tbS'niX_m3aMxhQ'
tRp592
ag3
(g4
(S'S11'
I0
I1
tRp593
(I3
S'|'
NNNI11
I1
I0
tbS'e7_2U4lm6TE'
tRp594
ag3
(g4
(S'S11'
I0
I1
tRp595
(I3
S'|'
NNNI11
I1
I0
tbS'1ZjIX9AK860'
tRp596
ag3
(g4
(S'S11'
I0
I1
tRp597
(I3
S'|'
NNNI11
I1
I0
tbS'0hCOCt6fWas'
tRp598
ag3
(g4
(S'S11'
I0
I1
tRp599
(I3
S'|'
NNNI11
I1
I0
tbS'N3QuD26DuCI'
tRp600
ag3
(g4
(S'S11'
I0
I1
tRp601
(I3
S'|'
NNNI11
I1
I0
tbS'U8Ewftg_8CI'
tRp602
ag3
(g4
(S'S11'
I0
I1
tRp603
(I3
S'|'
NNNI11
I1
I0
tbS'8F1mj-XT6KA'
tRp604
ag3
(g4
(S'S11'
I0
I1
tRp605
(I3
S'|'
NNNI11
I1
I0
tbS'3aIQUQgawaI'
tRp606
ag3
(g4
(S'S11'
I0
I1
tRp607
(I3
S'|'
NNNI11
I1
I0
tbS'qdeQg5dZb2E'
tRp608
ag3
(g4
(S'S5'
I0
I1
tRp609
(I3
S'|'
NNNI5
I1
I0
tbS'92521'
tRp610
ag3
(g4
(S'S11'
I0
I1
tRp611
(I3
S'|'
NNNI11
I1
I0
tbS'6UV6ktwbLoo'
tRp612
ag3
(g4
(S'S11'
I0
I1
tRp613
(I3
S'|'
NNNI11
I1
I0
tbS'90wZz0thye4'
tRp614
ag3
(g4
(S'S11'
I0
I1
tRp615
(I3
S'|'
NNNI11
I1
I0
tbS'zFuRNvfC4So'
tRp616
ag3
(g4
(S'S11'
I0
I1
tRp617
(I3
S'|'
NNNI11
I1
I0
tbS'IgenXuE4qIM'
tRp618
ag3
(g4
(S'S11'
I0
I1
tRp619
(I3
S'|'
NNNI11
I1
I0
tbS'g9rNhtFG9aU'
tRp620
ag3
(g4
(S'S11'
I0
I1
tRp621
(I3
S'|'
NNNI11
I1
I0
tbS'jT3FSTBA8Us'
tRp622
ag3
(g4
(S'S11'
I0
I1
tRp623
(I3
S'|'
NNNI11
I1
I0
tbS'nNFDj9fRAqE'
tRp624
ag3
(g4
(S'S11'
I0
I1
tRp625
(I3
S'|'
NNNI11
I1
I0
tbS'23YlZoucbyM'
tRp626
ag3
(g4
(S'S6'
I0
I1
tRp627
(I3
S'|'
NNNI6
I1
I0
tbS'245243'
tRp628
ag3
(g4
(S'S11'
I0
I1
tRp629
(I3
S'|'
NNNI11
I1
I0
tbS'BZOB3r5AoKE'
tRp630
ag3
(g4
(S'S11'
I0
I1
tRp631
(I3
S'|'
NNNI11
I1
I0
tbS'jgNu58Da9cs'
tRp632
ag3
(g4
(S'S11'
I0
I1
tRp633
(I3
S'|'
NNNI11
I1
I0
tbS'UKVwc6I06x8'
tRp634
ag3
(g4
(S'S11'
I0
I1
tRp635
(I3
S'|'
NNNI11
I1
I0
tbS'nxksB2kDJ6o'
tRp636
ag3
(g4
(S'S11'
I0
I1
tRp637
(I3
S'|'
NNNI11
I1
I0
tbS'6rkV4QRcVnk'
tRp638
ag3
(g4
(S'S11'
I0
I1
tRp639
(I3
S'|'
NNNI11
I1
I0
tbS'asWraTfIqq0'
tRp640
ag3
(g4
(S'S11'
I0
I1
tRp641
(I3
S'|'
NNNI11
I1
I0
tbS'7R70kKqtGh0'
tRp642
ag3
(g4
(S'S11'
I0
I1
tRp643
(I3
S'|'
NNNI11
I1
I0
tbS'BvvttuYysvg'
tRp644
ag3
(g4
(S'S11'
I0
I1
tRp645
(I3
S'|'
NNNI11
I1
I0
tbS'qaoSn1eEyq0'
tRp646
ag3
(g4
(S'S11'
I0
I1
tRp647
(I3
S'|'
NNNI11
I1
I0
tbS'So3bPzg2bq0'
tRp648
ag3
(g4
(S'S11'
I0
I1
tRp649
(I3
S'|'
NNNI11
I1
I0
tbS'Wnw1IAEDwDM'
tRp650
ag3
(g4
(S'S11'
I0
I1
tRp651
(I3
S'|'
NNNI11
I1
I0
tbS'UUukBV82P9A'
tRp652
ag3
(g4
(S'S11'
I0
I1
tRp653
(I3
S'|'
NNNI11
I1
I0
tbS'xP81rX2ATLI'
tRp654
ag3
(g4
(S'S11'
I0
I1
tRp655
(I3
S'|'
NNNI11
I1
I0
tbS'omHQ68k50XY'
tRp656
ag3
(g4
(S'S11'
I0
I1
tRp657
(I3
S'|'
NNNI11
I1
I0
tbS'zi0a6r52ZlY'
tRp658
ag3
(g4
(S'S6'
I0
I1
tRp659
(I3
S'|'
NNNI6
I1
I0
tbS'100499'
tRp660
ag3
(g4
(S'S11'
I0
I1
tRp661
(I3
S'|'
NNNI11
I1
I0
tbS'7fPYpqzw1iY'
tRp662
ag3
(g4
(S'S6'
I0
I1
tRp663
(I3
S'|'
NNNI6
I1
I0
tbS'261900'
tRp664
ag3
(g4
(S'S6'
I0
I1
tRp665
(I3
S'|'
NNNI6
I1
I0
tbS'261902'
tRp666
ag3
(g4
(S'S11'
I0
I1
tRp667
(I3
S'|'
NNNI11
I1
I0
tbS'-3nNcZdcdvU'
tRp668
ag3
(g4
(S'S11'
I0
I1
tRp669
(I3
S'|'
NNNI11
I1
I0
tbS'KEUVzxC7T3E'
tRp670
ag3
(g4
(S'S11'
I0
I1
tRp671
(I3
S'|'
NNNI11
I1
I0
tbS'KUVGWCTT5DU'
tRp672
ag3
(g4
(S'S11'
I0
I1
tRp673
(I3
S'|'
NNNI11
I1
I0
tbS'rVG8gOAY0JE'
tRp674
ag3
(g4
(S'S11'
I0
I1
tRp675
(I3
S'|'
NNNI11
I1
I0
tbS'p19Hsjx2xgI'
tRp676
ag3
(g4
(S'S6'
I0
I1
tRp677
(I3
S'|'
NNNI6
I1
I0
tbS'244261'
tRp678
ag3
(g4
(S'S11'
I0
I1
tRp679
(I3
S'|'
NNNI11
I1
I0
tbS'qDIh6YNbIMU'
tRp680
ag3
(g4
(S'S11'
I0
I1
tRp681
(I3
S'|'
NNNI11
I1
I0
tbS'N7IerkWUClI'
tRp682
ag3
(g4
(S'S5'
I0
I1
tRp683
(I3
S'|'
NNNI5
I1
I0
tbS'43456'
tRp684
ag3
(g4
(S'S11'
I0
I1
tRp685
(I3
S'|'
NNNI11
I1
I0
tbS'pfCPogxnUfw'
tRp686
ag3
(g4
(S'S11'
I0
I1
tRp687
(I3
S'|'
NNNI11
I1
I0
tbS'AVScVfLgNmw'
tRp688
ag3
(g4
(S'S5'
I0
I1
tRp689
(I3
S'|'
NNNI5
I1
I0
tbS'73447'
tRp690
ag3
(g4
(S'S11'
I0
I1
tRp691
(I3
S'|'
NNNI11
I1
I0
tbS'4ZhIx2ozUIE'
tRp692
ag3
(g4
(S'S11'
I0
I1
tRp693
(I3
S'|'
NNNI11
I1
I0
tbS'ZltpfWh2aIw'
tRp694
ag3
(g4
(S'S6'
I0
I1
tRp695
(I3
S'|'
NNNI6
I1
I0
tbS'266938'
tRp696
ag3
(g4
(S'S5'
I0
I1
tRp697
(I3
S'|'
NNNI5
I1
I0
tbS'73449'
tRp698
ag3
(g4
(S'S11'
I0
I1
tRp699
(I3
S'|'
NNNI11
I1
I0
tbS'QoIsjc4-GIg'
tRp700
ag3
(g4
(S'S11'
I0
I1
tRp701
(I3
S'|'
NNNI11
I1
I0
tbS'8X5tGQLBqPo'
tRp702
ag3
(g4
(S'S11'
I0
I1
tRp703
(I3
S'|'
NNNI11
I1
I0
tbS'Tiq67-bAV3M'
tRp704
ag3
(g4
(S'S11'
I0
I1
tRp705
(I3
S'|'
NNNI11
I1
I0
tbS'B1B71X_SmwY'
tRp706
ag3
(g4
(S'S11'
I0
I1
tRp707
(I3
S'|'
NNNI11
I1
I0
tbS'UjT8pHMN8Q8'
tRp708
ag3
(g4
(S'S5'
I0
I1
tRp709
(I3
S'|'
NNNI5
I1
I0
tbS'98442'
tRp710
ag3
(g4
(S'S11'
I0
I1
tRp711
(I3
S'|'
NNNI11
I1
I0
tbS'iceSGs0MXaA'
tRp712
ag3
(g4
(S'S6'
I0
I1
tRp713
(I3
S'|'
NNNI6
I1
I0
tbS'110203'
tRp714
ag3
(g4
(S'S5'
I0
I1
tRp715
(I3
S'|'
NNNI5
I1
I0
tbS'74101'
tRp716
ag3
(g4
(S'S11'
I0
I1
tRp717
(I3
S'|'
NNNI11
I1
I0
tbS'A8plGi4rbxM'
tRp718
ag3
(g4
(S'S11'
I0
I1
tRp719
(I3
S'|'
NNNI11
I1
I0
tbS'grePRQ8zonA'
tRp720
ag3
(g4
(S'S11'
I0
I1
tRp721
(I3
S'|'
NNNI11
I1
I0
tbS'9K4aWWoXuyU'
tRp722
ag3
(g4
(S'S11'
I0
I1
tRp723
(I3
S'|'
NNNI11
I1
I0
tbS'Zo8jCDGMWjw'
tRp724
ag3
(g4
(S'S11'
I0
I1
tRp725
(I3
S'|'
NNNI11
I1
I0
tbS'I8MM8y1XVjs'
tRp726
ag3
(g4
(S'S11'
I0
I1
tRp727
(I3
S'|'
NNNI11
I1
I0
tbS'L0WUuWYNeCo'
tRp728
ag3
(g4
(S'S11'
I0
I1
tRp729
(I3
S'|'
NNNI11
I1
I0
tbS'aIUF3QJJOF4'
tRp730
ag3
(g4
(S'S11'
I0
I1
tRp731
(I3
S'|'
NNNI11
I1
I0
tbS'K1VeXZxR24U'
tRp732
ag3
(g4
(S'S6'
I0
I1
tRp733
(I3
S'|'
NNNI6
I1
I0
tbS'259260'
tRp734
ag3
(g4
(S'S11'
I0
I1
tRp735
(I3
S'|'
NNNI11
I1
I0
tbS'708sewcSXVY'
tRp736
ag3
(g4
(S'S11'
I0
I1
tRp737
(I3
S'|'
NNNI11
I1
I0
tbS'Wfn7XvSEwUA'
tRp738
ag3
(g4
(S'S11'
I0
I1
tRp739
(I3
S'|'
NNNI11
I1
I0
tbS'l-nM_U1qpko'
tRp740
ag3
(g4
(S'S11'
I0
I1
tRp741
(I3
S'|'
NNNI11
I1
I0
tbS'2LpVvLemgvw'
tRp742
ag3
(g4
(S'S11'
I0
I1
tRp743
(I3
S'|'
NNNI11
I1
I0
tbS'gm4l099casQ'
tRp744
ag3
(g4
(S'S11'
I0
I1
tRp745
(I3
S'|'
NNNI11
I1
I0
tbS't7a3zECpT4k'
tRp746
ag3
(g4
(S'S11'
I0
I1
tRp747
(I3
S'|'
NNNI11
I1
I0
tbS'9BceQC_SdTM'
tRp748
ag3
(g4
(S'S11'
I0
I1
tRp749
(I3
S'|'
NNNI11
I1
I0
tbS'trQLgl6ncmk'
tRp750
ag3
(g4
(S'S11'
I0
I1
tRp751
(I3
S'|'
NNNI11
I1
I0
tbS'zR-kKDaSDmE'
tRp752
ag3
(g4
(S'S11'
I0
I1
tRp753
(I3
S'|'
NNNI11
I1
I0
tbS'oHV99Y_EWfI'
tRp754
ag3
(g4
(S'S11'
I0
I1
tRp755
(I3
S'|'
NNNI11
I1
I0
tbS'L382XZ6iZmM'
tRp756
ag3
(g4
(S'S11'
I0
I1
tRp757
(I3
S'|'
NNNI11
I1
I0
tbS'X0jMZoxUL2A'
tRp758
ag3
(g4
(S'S11'
I0
I1
tRp759
(I3
S'|'
NNNI11
I1
I0
tbS'D1I-Z8jaby8'
tRp760
ag3
(g4
(S'S11'
I0
I1
tRp761
(I3
S'|'
NNNI11
I1
I0
tbS'z-bupzylxEc'
tRp762
ag3
(g4
(S'S6'
I0
I1
tRp763
(I3
S'|'
NNNI6
I1
I0
tbS'125730'
tRp764
ag3
(g4
(S'S11'
I0
I1
tRp765
(I3
S'|'
NNNI11
I1
I0
tbS'K62NK2KYhws'
tRp766
ag3
(g4
(S'S11'
I0
I1
tRp767
(I3
S'|'
NNNI11
I1
I0
tbS'jYT3-RQFy1U'
tRp768
ag3
(g4
(S'S11'
I0
I1
tRp769
(I3
S'|'
NNNI11
I1
I0
tbS'A2E78CGi5TU'
tRp770
ag3
(g4
(S'S11'
I0
I1
tRp771
(I3
S'|'
NNNI11
I1
I0
tbS'7hSWYI99-24'
tRp772
ag3
(g4
(S'S11'
I0
I1
tRp773
(I3
S'|'
NNNI11
I1
I0
tbS'eeN7l4R3nPc'
tRp774
ag3
(g4
(S'S11'
I0
I1
tRp775
(I3
S'|'
NNNI11
I1
I0
tbS'nmWplIQhvoA'
tRp776
ag3
(g4
(S'S11'
I0
I1
tRp777
(I3
S'|'
NNNI11
I1
I0
tbS'UtuTyW9pUN8'
tRp778
ag3
(g4
(S'S5'
I0
I1
tRp779
(I3
S'|'
NNNI5
I1
I0
tbS'83859'
tRp780
ag3
(g4
(S'S6'
I0
I1
tRp781
(I3
S'|'
NNNI6
I1
I0
tbS'101851'
tRp782
ag3
(g4
(S'S11'
I0
I1
tRp783
(I3
S'|'
NNNI11
I1
I0
tbS'G3RPgs_7l3U'
tRp784
ag3
(g4
(S'S11'
I0
I1
tRp785
(I3
S'|'
NNNI11
I1
I0
tbS'5R5fDxZUL8M'
tRp786
ag3
(g4
(S'S11'
I0
I1
tRp787
(I3
S'|'
NNNI11
I1
I0
tbS'5PqwxUYIe3c'
tRp788
ag3
(g4
(S'S11'
I0
I1
tRp789
(I3
S'|'
NNNI11
I1
I0
tbS'd3EeIRaMbbk'
tRp790
ag3
(g4
(S'S11'
I0
I1
tRp791
(I3
S'|'
NNNI11
I1
I0
tbS'qbIajpM7U3Y'
tRp792
ag3
(g4
(S'S11'
I0
I1
tRp793
(I3
S'|'
NNNI11
I1
I0
tbS'Nmd50Uzyybs'
tRp794
ag3
(g4
(S'S11'
I0
I1
tRp795
(I3
S'|'
NNNI11
I1
I0
tbS'Jh1uDYOJMwk'
tRp796
ag3
(g4
(S'S11'
I0
I1
tRp797
(I3
S'|'
NNNI11
I1
I0
tbS'AjgDuPEp9sI'
tRp798
ag3
(g4
(S'S11'
I0
I1
tRp799
(I3
S'|'
NNNI11
I1
I0
tbS'iMG962Rj3Vw'
tRp800
ag3
(g4
(S'S11'
I0
I1
tRp801
(I3
S'|'
NNNI11
I1
I0
tbS'Ua4g9q0r-dI'
tRp802
ag3
(g4
(S'S11'
I0
I1
tRp803
(I3
S'|'
NNNI11
I1
I0
tbS'hntnelpiyl8'
tRp804
ag3
(g4
(S'S6'
I0
I1
tRp805
(I3
S'|'
NNNI6
I1
I0
tbS'234587'
tRp806
ag3
(g4
(S'S11'
I0
I1
tRp807
(I3
S'|'
NNNI11
I1
I0
tbS'X7-Gbk8gAD0'
tRp808
ag3
(g4
(S'S11'
I0
I1
tRp809
(I3
S'|'
NNNI11
I1
I0
tbS'0tkWa2skSmA'
tRp810
ag3
(g4
(S'S11'
I0
I1
tRp811
(I3
S'|'
NNNI11
I1
I0
tbS'9cSJglGi9Pg'
tRp812
ag3
(g4
(S'S11'
I0
I1
tRp813
(I3
S'|'
NNNI11
I1
I0
tbS'rNXM3avNBKk'
tRp814
ag3
(g4
(S'S11'
I0
I1
tRp815
(I3
S'|'
NNNI11
I1
I0
tbS'gEgcpVY8WK4'
tRp816
ag3
(g4
(S'S11'
I0
I1
tRp817
(I3
S'|'
NNNI11
I1
I0
tbS'Bg-PA5KTjNs'
tRp818
ag3
(g4
(S'S11'
I0
I1
tRp819
(I3
S'|'
NNNI11
I1
I0
tbS'SWHmteF5Rlk'
tRp820
ag3
(g4
(S'S11'
I0
I1
tRp821
(I3
S'|'
NNNI11
I1
I0
tbS'gr8mzv2xZ2s'
tRp822
ag3
(g4
(S'S11'
I0
I1
tRp823
(I3
S'|'
NNNI11
I1
I0
tbS'i6UngvEEuNs'
tRp824
ag3
(g4
(S'S11'
I0
I1
tRp825
(I3
S'|'
NNNI11
I1
I0
tbS'yuwvVTnsDjc'
tRp826
ag3
(g4
(S'S11'
I0
I1
tRp827
(I3
S'|'
NNNI11
I1
I0
tbS'ULtBuI6nMaY'
tRp828
ag3
(g4
(S'S11'
I0
I1
tRp829
(I3
S'|'
NNNI11
I1
I0
tbS'sIGAq2J4KKI'
tRp830
ag3
(g4
(S'S11'
I0
I1
tRp831
(I3
S'|'
NNNI11
I1
I0
tbS'4EEru3cZwXo'
tRp832
ag3
(g4
(S'S11'
I0
I1
tRp833
(I3
S'|'
NNNI11
I1
I0
tbS'qlDiE1d45Bc'
tRp834
ag3
(g4
(S'S11'
I0
I1
tRp835
(I3
S'|'
NNNI11
I1
I0
tbS'Xx7Y2YIbleA'
tRp836
ag3
(g4
(S'S6'
I0
I1
tRp837
(I3
S'|'
NNNI6
I1
I0
tbS'225416'
tRp838
ag3
(g4
(S'S11'
I0
I1
tRp839
(I3
S'|'
NNNI11
I1
I0
tbS'xomMHflvVDw'
tRp840
ag3
(g4
(S'S11'
I0
I1
tRp841
(I3
S'|'
NNNI11
I1
I0
tbS'ahcAFnY6iAY'
tRp842
ag3
(g4
(S'S11'
I0
I1
tRp843
(I3
S'|'
NNNI11
I1
I0
tbS'Gvg_80PlAAs'
tRp844
ag3
(g4
(S'S6'
I0
I1
tRp845
(I3
S'|'
NNNI6
I1
I0
tbS'216007'
tRp846
ag3
(g4
(S'S11'
I0
I1
tRp847
(I3
S'|'
NNNI11
I1
I0
tbS'3DOrdP4H8SA'
tRp848
ag3
(g4
(S'S6'
I0
I1
tRp849
(I3
S'|'
NNNI6
I1
I0
tbS'186631'
tRp850
ag3
(g4
(S'S11'
I0
I1
tRp851
(I3
S'|'
NNNI11
I1
I0
tbS'zaTyjiyrHnk'
tRp852
ag3
(g4
(S'S11'
I0
I1
tRp853
(I3
S'|'
NNNI11
I1
I0
tbS'AGM-hNupJik'
tRp854
ag3
(g4
(S'S6'
I0
I1
tRp855
(I3
S'|'
NNNI6
I1
I0
tbS'270956'
tRp856
ag3
(g4
(S'S11'
I0
I1
tRp857
(I3
S'|'
NNNI11
I1
I0
tbS'9f6A3ucYArQ'
tRp858
ag3
(g4
(S'S11'
I0
I1
tRp859
(I3
S'|'
NNNI11
I1
I0
tbS'vM3YB7LmMq4'
tRp860
ag3
(g4
(S'S11'
I0
I1
tRp861
(I3
S'|'
NNNI11
I1
I0
tbS'M2Pb2kx77ww'
tRp862
ag3
(g4
(S'S11'
I0
I1
tRp863
(I3
S'|'
NNNI11
I1
I0
tbS'lVj6ZdyW9pI'
tRp864
ag3
(g4
(S'S11'
I0
I1
tRp865
(I3
S'|'
NNNI11
I1
I0
tbS'Dws8ZrzF7xQ'
tRp866
ag3
(g4
(S'S11'
I0
I1
tRp867
(I3
S'|'
NNNI11
I1
I0
tbS'taCchyi5h68'
tRp868
ag3
(g4
(S'S5'
I0
I1
tRp869
(I3
S'|'
NNNI5
I1
I0
tbS'30763'
tRp870
ag3
(g4
(S'S11'
I0
I1
tRp871
(I3
S'|'
NNNI11
I1
I0
tbS'SuKnUzid-1g'
tRp872
ag3
(g4
(S'S11'
I0
I1
tRp873
(I3
S'|'
NNNI11
I1
I0
tbS'E8L1Z71vKG8'
tRp874
ag3
(g4
(S'S11'
I0
I1
tRp875
(I3
S'|'
NNNI11
I1
I0
tbS'9zBj8VkRBpE'
tRp876
ag3
(g4
(S'S11'
I0
I1
tRp877
(I3
S'|'
NNNI11
I1
I0
tbS'Q_py5n2fQXw'
tRp878
ag3
(g4
(S'S11'
I0
I1
tRp879
(I3
S'|'
NNNI11
I1
I0
tbS'VUrTT7xsrec'
tRp880
ag3
(g4
(S'S6'
I0
I1
tRp881
(I3
S'|'
NNNI6
I1
I0
tbS'256976'
tRp882
ag3
(g4
(S'S11'
I0
I1
tRp883
(I3
S'|'
NNNI11
I1
I0
tbS'GpRDC-S88dM'
tRp884
ag3
(g4
(S'S11'
I0
I1
tRp885
(I3
S'|'
NNNI11
I1
I0
tbS'hmjfBZGGZR8'
tRp886
ag3
(g4
(S'S11'
I0
I1
tRp887
(I3
S'|'
NNNI11
I1
I0
tbS'wj3ur4fsiN4'
tRp888
ag3
(g4
(S'S11'
I0
I1
tRp889
(I3
S'|'
NNNI11
I1
I0
tbS'DbAppk7xT0Y'
tRp890
ag3
(g4
(S'S11'
I0
I1
tRp891
(I3
S'|'
NNNI11
I1
I0
tbS'ABSC1JNdpTw'
tRp892
ag3
(g4
(S'S11'
I0
I1
tRp893
(I3
S'|'
NNNI11
I1
I0
tbS'cnllFPRyBFs'
tRp894
ag3
(g4
(S'S11'
I0
I1
tRp895
(I3
S'|'
NNNI11
I1
I0
tbS'fbSxct2JcKU'
tRp896
ag3
(g4
(S'S11'
I0
I1
tRp897
(I3
S'|'
NNNI11
I1
I0
tbS's1Yo_MCiMPc'
tRp898
ag3
(g4
(S'S11'
I0
I1
tRp899
(I3
S'|'
NNNI11
I1
I0
tbS'Q5YU2sLKVL4'
tRp900
ag3
(g4
(S'S11'
I0
I1
tRp901
(I3
S'|'
NNNI11
I1
I0
tbS'u94VPxEIJPg'
tRp902
ag3
(g4
(S'S11'
I0
I1
tRp903
(I3
S'|'
NNNI11
I1
I0
tbS'0p9XKC_J3hU'
tRp904
ag3
(g4
(S'S11'
I0
I1
tRp905
(I3
S'|'
NNNI11
I1
I0
tbS'rv1gp0wEhI0'
tRp906
ag3
(g4
(S'S11'
I0
I1
tRp907
(I3
S'|'
NNNI11
I1
I0
tbS'HByf7qiO-Kg'
tRp908
ag3
(g4
(S'S11'
I0
I1
tRp909
(I3
S'|'
NNNI11
I1
I0
tbS'aFjMWlR1QAY'
tRp910
ag3
(g4
(S'S11'
I0
I1
tRp911
(I3
S'|'
NNNI11
I1
I0
tbS'424vOT3Nnyk'
tRp912
ag3
(g4
(S'S11'
I0
I1
tRp913
(I3
S'|'
NNNI11
I1
I0
tbS'jXp595jj734'
tRp914
ag3
(g4
(S'S11'
I0
I1
tRp915
(I3
S'|'
NNNI11
I1
I0
tbS'GxWLhv-Vt78'
tRp916
ag3
(g4
(S'S6'
I0
I1
tRp917
(I3
S'|'
NNNI6
I1
I0
tbS'110788'
tRp918
ag3
(g4
(S'S11'
I0
I1
tRp919
(I3
S'|'
NNNI11
I1
I0
tbS'TxJjAK0WrOY'
tRp920
ag3
(g4
(S'S11'
I0
I1
tRp921
(I3
S'|'
NNNI11
I1
I0
tbS'rLHJ_ebXCHQ'
tRp922
ag3
(g4
(S'S11'
I0
I1
tRp923
(I3
S'|'
NNNI11
I1
I0
tbS'4Yxe1_ohz7Y'
tRp924
ag3
(g4
(S'S11'
I0
I1
tRp925
(I3
S'|'
NNNI11
I1
I0
tbS'tRSPfPlNbMU'
tRp926
ag3
(g4
(S'S11'
I0
I1
tRp927
(I3
S'|'
NNNI11
I1
I0
tbS'1fqNb8cfLFE'
tRp928
ag3
(g4
(S'S11'
I0
I1
tRp929
(I3
S'|'
NNNI11
I1
I0
tbS'Q7OvlYjNt9w'
tRp930
ag3
(g4
(S'S11'
I0
I1
tRp931
(I3
S'|'
NNNI11
I1
I0
tbS'ZUqTWOx9jYU'
tRp932
ag3
(g4
(S'S11'
I0
I1
tRp933
(I3
S'|'
NNNI11
I1
I0
tbS'PN3ApHIGopo'
tRp934
ag3
(g4
(S'S11'
I0
I1
tRp935
(I3
S'|'
NNNI11
I1
I0
tbS'_KGd7IpX3B4'
tRp936
ag3
(g4
(S'S5'
I0
I1
tRp937
(I3
S'|'
NNNI5
I1
I0
tbS'38374'
tRp938
ag3
(g4
(S'S6'
I0
I1
tRp939
(I3
S'|'
NNNI6
I1
I0
tbS'266852'
tRp940
ag3
(g4
(S'S11'
I0
I1
tRp941
(I3
S'|'
NNNI11
I1
I0
tbS'R0o37yJ1PP0'
tRp942
ag3
(g4
(S'S6'
I0
I1
tRp943
(I3
S'|'
NNNI6
I1
I0
tbS'245497'
tRp944
ag3
(g4
(S'S5'
I0
I1
tRp945
(I3
S'|'
NNNI5
I1
I0
tbS'92533'
tRp946
ag3
(g4
(S'S11'
I0
I1
tRp947
(I3
S'|'
NNNI11
I1
I0
tbS'RKP6j28FCWE'
tRp948
ag3
(g4
(S'S11'
I0
I1
tRp949
(I3
S'|'
NNNI11
I1
I0
tbS'PQYmOknHA4c'
tRp950
ag3
(g4
(S'S11'
I0
I1
tRp951
(I3
S'|'
NNNI11
I1
I0
tbS'q4hP2j7oewo'
tRp952
ag3
(g4
(S'S11'
I0
I1
tRp953
(I3
S'|'
NNNI11
I1
I0
tbS'XVSDfgstFUQ'
tRp954
ag3
(g4
(S'S11'
I0
I1
tRp955
(I3
S'|'
NNNI11
I1
I0
tbS'W-ptEZFARVo'
tRp956
ag3
(g4
(S'S6'
I0
I1
tRp957
(I3
S'|'
NNNI6
I1
I0
tbS'127539'
tRp958
ag3
(g4
(S'S11'
I0
I1
tRp959
(I3
S'|'
NNNI11
I1
I0
tbS'CqFt3_uka14'
tRp960
ag3
(g4
(S'S11'
I0
I1
tRp961
(I3
S'|'
NNNI11
I1
I0
tbS'I--8nRKCkJI'
tRp962
ag3
(g4
(S'S11'
I0
I1
tRp963
(I3
S'|'
NNNI11
I1
I0
tbS'zrFZAofNGi4'
tRp964
ag3
(g4
(S'S5'
I0
I1
tRp965
(I3
S'|'
NNNI5
I1
I0
tbS'52839'
tRp966
ag3
(g4
(S'S11'
I0
I1
tRp967
(I3
S'|'
NNNI11
I1
I0
tbS'gAMbkJk6gnE'
tRp968
ag3
(g4
(S'S11'
I0
I1
tRp969
(I3
S'|'
NNNI11
I1
I0
tbS'hlYDicOj2m0'
tRp970
ag3
(g4
(S'S11'
I0
I1
tRp971
(I3
S'|'
NNNI11
I1
I0
tbS'XPoY4LD-A1I'
tRp972
ag3
(g4
(S'S11'
I0
I1
tRp973
(I3
S'|'
NNNI11
I1
I0
tbS'5Fs_7A_V2kA'
tRp974
ag3
(g4
(S'S11'
I0
I1
tRp975
(I3
S'|'
NNNI11
I1
I0
tbS'9sAoeFTKILY'
tRp976
ag3
(g4
(S'S11'
I0
I1
tRp977
(I3
S'|'
NNNI11
I1
I0
tbS't2U7w3K2qac'
tRp978
ag3
(g4
(S'S11'
I0
I1
tRp979
(I3
S'|'
NNNI11
I1
I0
tbS'VgqI1KRnDSw'
tRp980
ag3
(g4
(S'S5'
I0
I1
tRp981
(I3
S'|'
NNNI5
I1
I0
tbS'92331'
tRp982
ag3
(g4
(S'S6'
I0
I1
tRp983
(I3
S'|'
NNNI6
I1
I0
tbS'220134'
tRp984
ag3
(g4
(S'S11'
I0
I1
tRp985
(I3
S'|'
NNNI11
I1
I0
tbS'LppEvM60-xo'
tRp986
ag3
(g4
(S'S11'
I0
I1
tRp987
(I3
S'|'
NNNI11
I1
I0
tbS'1ESU5ONMMxs'
tRp988
ag3
(g4
(S'S11'
I0
I1
tRp989
(I3
S'|'
NNNI11
I1
I0
tbS'FJgO-FICHlA'
tRp990
ag3
(g4
(S'S11'
I0
I1
tRp991
(I3
S'|'
NNNI11
I1
I0
tbS'JW2HHfQiGVs'
tRp992
ag3
(g4
(S'S6'
I0
I1
tRp993
(I3
S'|'
NNNI6
I1
I0
tbS'256935'
tRp994
ag3
(g4
(S'S11'
I0
I1
tRp995
(I3
S'|'
NNNI11
I1
I0
tbS'GTGtVdAuyRc'
tRp996
ag3
(g4
(S'S11'
I0
I1
tRp997
(I3
S'|'
NNNI11
I1
I0
tbS'JzydLJw6y6o'
tRp998
ag3
(g4
(S'S11'
I0
I1
tRp999
(I3
S'|'
NNNI11
I1
I0
tbS'flBtk736di4'
tRp1000
ag3
(g4
(S'S11'
I0
I1
tRp1001
(I3
S'|'
NNNI11
I1
I0
tbS'69NtV79qgOg'
tRp1002
ag3
(g4
(S'S11'
I0
I1
tRp1003
(I3
S'|'
NNNI11
I1
I0
tbS'q-0gu48ClF4'
tRp1004
ag3
(g4
(S'S11'
I0
I1
tRp1005
(I3
S'|'
NNNI11
I1
I0
tbS'm7SJs73SF8w'
tRp1006
ag3
(g4
(S'S11'
I0
I1
tRp1007
(I3
S'|'
NNNI11
I1
I0
tbS'L8VjQM9HQfs'
tRp1008
ag3
(g4
(S'S11'
I0
I1
tRp1009
(I3
S'|'
NNNI11
I1
I0
tbS'5oEuiBPUTYc'
tRp1010
ag3
(g4
(S'S11'
I0
I1
tRp1011
(I3
S'|'
NNNI11
I1
I0
tbS'4qVvLLFEYnk'
tRp1012
ag3
(g4
(S'S11'
I0
I1
tRp1013
(I3
S'|'
NNNI11
I1
I0
tbS'cWN1bibicHc'
tRp1014
ag3
(g4
(S'S11'
I0
I1
tRp1015
(I3
S'|'
NNNI11
I1
I0
tbS'BRzjQHYWbSs'
tRp1016
ag3
(g4
(S'S11'
I0
I1
tRp1017
(I3
S'|'
NNNI11
I1
I0
tbS'zKNAu2CCeRs'
tRp1018
ag3
(g4
(S'S11'
I0
I1
tRp1019
(I3
S'|'
NNNI11
I1
I0
tbS'YfxtwXXkCmc'
tRp1020
ag3
(g4
(S'S11'
I0
I1
tRp1021
(I3
S'|'
NNNI11
I1
I0
tbS'_JcML8u5Wes'
tRp1022
ag3
(g4
(S'S11'
I0
I1
tRp1023
(I3
S'|'
NNNI11
I1
I0
tbS'kcIGTPHEsNo'
tRp1024
ag3
(g4
(S'S11'
I0
I1
tRp1025
(I3
S'|'
NNNI11
I1
I0
tbS'soqnBdPOwoo'
tRp1026
ag3
(g4
(S'S11'
I0
I1
tRp1027
(I3
S'|'
NNNI11
I1
I0
tbS'v45zoIrjoTo'
tRp1028
ag3
(g4
(S'S11'
I0
I1
tRp1029
(I3
S'|'
NNNI11
I1
I0
tbS'GOj7TBcEA8E'
tRp1030
ag3
(g4
(S'S11'
I0
I1
tRp1031
(I3
S'|'
NNNI11
I1
I0
tbS'1RBT_QoSkIU'
tRp1032
ag3
(g4
(S'S6'
I0
I1
tRp1033
(I3
S'|'
NNNI6
I1
I0
tbS'245276'
tRp1034
ag3
(g4
(S'S11'
I0
I1
tRp1035
(I3
S'|'
NNNI11
I1
I0
tbS'9K5mYSaoBL4'
tRp1036
ag3
(g4
(S'S11'
I0
I1
tRp1037
(I3
S'|'
NNNI11
I1
I0
tbS'-aNfi7CP8vM'
tRp1038
ag3
(g4
(S'S6'
I0
I1
tRp1039
(I3
S'|'
NNNI6
I1
I0
tbS'292277'
tRp1040
ag3
(g4
(S'S11'
I0
I1
tRp1041
(I3
S'|'
NNNI11
I1
I0
tbS'ymPQOY2O_nw'
tRp1042
ag3
(g4
(S'S5'
I0
I1
tRp1043
(I3
S'|'
NNNI5
I1
I0
tbS'21137'
tRp1044
ag3
(g4
(S'S6'
I0
I1
tRp1045
(I3
S'|'
NNNI6
I1
I0
tbS'208148'
tRp1046
ag3
(g4
(S'S11'
I0
I1
tRp1047
(I3
S'|'
NNNI11
I1
I0
tbS'aDvgbBqTWWE'
tRp1048
ag3
(g4
(S'S11'
I0
I1
tRp1049
(I3
S'|'
NNNI11
I1
I0
tbS'6PLlauWxF5E'
tRp1050
ag3
(g4
(S'S11'
I0
I1
tRp1051
(I3
S'|'
NNNI11
I1
I0
tbS'bCDfIJ12oqM'
tRp1052
ag3
(g4
(S'S11'
I0
I1
tRp1053
(I3
S'|'
NNNI11
I1
I0
tbS'MbpPBLUjpV4'
tRp1054
ag3
(g4
(S'S11'
I0
I1
tRp1055
(I3
S'|'
NNNI11
I1
I0
tbS'hawztAtYHCE'
tRp1056
ag3
(g4
(S'S11'
I0
I1
tRp1057
(I3
S'|'
NNNI11
I1
I0
tbS'45c3QQzGakM'
tRp1058
ag3
(g4
(S'S11'
I0
I1
tRp1059
(I3
S'|'
NNNI11
I1
I0
tbS'5XX0csik6VQ'
tRp1060
ag3
(g4
(S'S11'
I0
I1
tRp1061
(I3
S'|'
NNNI11
I1
I0
tbS'bI3DTH2yTbM'
tRp1062
ag3
(g4
(S'S11'
I0
I1
tRp1063
(I3
S'|'
NNNI11
I1
I0
tbS'k8NgVOCDYKM'
tRp1064
ag3
(g4
(S'S11'
I0
I1
tRp1065
(I3
S'|'
NNNI11
I1
I0
tbS'WBCRTcMJZZc'
tRp1066
ag3
(g4
(S'S11'
I0
I1
tRp1067
(I3
S'|'
NNNI11
I1
I0
tbS'k5-3KuvCFms'
tRp1068
ag3
(g4
(S'S11'
I0
I1
tRp1069
(I3
S'|'
NNNI11
I1
I0
tbS'w44JDB1NmqM'
tRp1070
ag3
(g4
(S'S11'
I0
I1
tRp1071
(I3
S'|'
NNNI11
I1
I0
tbS'SaNXCez-9iQ'
tRp1072
ag3
(g4
(S'S11'
I0
I1
tRp1073
(I3
S'|'
NNNI11
I1
I0
tbS'YcJ5RJYUr7Y'
tRp1074
ag3
(g4
(S'S11'
I0
I1
tRp1075
(I3
S'|'
NNNI11
I1
I0
tbS'AepwIhSbAws'
tRp1076
ag3
(g4
(S'S11'
I0
I1
tRp1077
(I3
S'|'
NNNI11
I1
I0
tbS'y5JdqGL5DRc'
tRp1078
ag3
(g4
(S'S6'
I0
I1
tRp1079
(I3
S'|'
NNNI6
I1
I0
tbS'261267'
tRp1080
ag3
(g4
(S'S11'
I0
I1
tRp1081
(I3
S'|'
NNNI11
I1
I0
tbS'L3b9wwZ8vRQ'
tRp1082
ag3
(g4
(S'S11'
I0
I1
tRp1083
(I3
S'|'
NNNI11
I1
I0
tbS'e1E5W_ZefmY'
tRp1084
ag3
(g4
(S'S6'
I0
I1
tRp1085
(I3
S'|'
NNNI6
I1
I0
tbS'125895'
tRp1086
ag3
(g4
(S'S11'
I0
I1
tRp1087
(I3
S'|'
NNNI11
I1
I0
tbS'AGFgaKPzjMQ'
tRp1088
ag3
(g4
(S'S11'
I0
I1
tRp1089
(I3
S'|'
NNNI11
I1
I0
tbS'1YEgMQ1xxzQ'
tRp1090
ag3
(g4
(S'S11'
I0
I1
tRp1091
(I3
S'|'
NNNI11
I1
I0
tbS'_8pvMpMdGM4'
tRp1092
ag3
(g4
(S'S11'
I0
I1
tRp1093
(I3
S'|'
NNNI11
I1
I0
tbS'rFHIApgUtoI'
tRp1094
ag3
(g4
(S'S11'
I0
I1
tRp1095
(I3
S'|'
NNNI11
I1
I0
tbS'gXDRWhJbfFU'
tRp1096
ag3
(g4
(S'S11'
I0
I1
tRp1097
(I3
S'|'
NNNI11
I1
I0
tbS'TM7cHOHfF70'
tRp1098
ag3
(g4
(S'S11'
I0
I1
tRp1099
(I3
S'|'
NNNI11
I1
I0
tbS'n-sgVVTE9Io'
tRp1100
ag3
(g4
(S'S11'
I0
I1
tRp1101
(I3
S'|'
NNNI11
I1
I0
tbS'HWLpH3NMtFs'
tRp1102
ag3
(g4
(S'S5'
I0
I1
tRp1103
(I3
S'|'
NNNI5
I1
I0
tbS'22821'
tRp1104
ag3
(g4
(S'S11'
I0
I1
tRp1105
(I3
S'|'
NNNI11
I1
I0
tbS'SGsiGz2fdpo'
tRp1106
ag3
(g4
(S'S11'
I0
I1
tRp1107
(I3
S'|'
NNNI11
I1
I0
tbS'lKTeLK8nq8w'
tRp1108
ag3
(g4
(S'S11'
I0
I1
tRp1109
(I3
S'|'
NNNI11
I1
I0
tbS'2h9VVQUZjK0'
tRp1110
ag3
(g4
(S'S11'
I0
I1
tRp1111
(I3
S'|'
NNNI11
I1
I0
tbS'jZnFr-Mzj9M'
tRp1112
ag3
(g4
(S'S5'
I0
I1
tRp1113
(I3
S'|'
NNNI5
I1
I0
tbS'53742'
tRp1114
ag3
(g4
(S'S6'
I0
I1
tRp1115
(I3
S'|'
NNNI6
I1
I0
tbS'270416'
tRp1116
ag3
(g4
(S'S11'
I0
I1
tRp1117
(I3
S'|'
NNNI11
I1
I0
tbS'4oeKDFIaL7o'
tRp1118
ag3
(g4
(S'S11'
I0
I1
tRp1119
(I3
S'|'
NNNI11
I1
I0
tbS'2w7rpDe-HoA'
tRp1120
ag3
(g4
(S'S11'
I0
I1
tRp1121
(I3
S'|'
NNNI11
I1
I0
tbS'GMjQUrlMa50'
tRp1122
ag3
(g4
(S'S11'
I0
I1
tRp1123
(I3
S'|'
NNNI11
I1
I0
tbS'JYdfUNjyYxo'
tRp1124
ag3
(g4
(S'S11'
I0
I1
tRp1125
(I3
S'|'
NNNI11
I1
I0
tbS'mNurUl_Q2UY'
tRp1126
ag3
(g4
(S'S11'
I0
I1
tRp1127
(I3
S'|'
NNNI11
I1
I0
tbS'9ceYD_OzPz8'
tRp1128
ag3
(g4
(S'S11'
I0
I1
tRp1129
(I3
S'|'
NNNI11
I1
I0
tbS'TNwwVWA-oAE'
tRp1130
ag3
(g4
(S'S11'
I0
I1
tRp1131
(I3
S'|'
NNNI11
I1
I0
tbS'G1Z_JUTgZqo'
tRp1132
ag3
(g4
(S'S11'
I0
I1
tRp1133
(I3
S'|'
NNNI11
I1
I0
tbS'bfy28AlY-TQ'
tRp1134
ag3
(g4
(S'S11'
I0
I1
tRp1135
(I3
S'|'
NNNI11
I1
I0
tbS'mL2v-sODUZ8'
tRp1136
ag3
(g4
(S'S11'
I0
I1
tRp1137
(I3
S'|'
NNNI11
I1
I0
tbS'jjbOD6u7V34'
tRp1138
ag3
(g4
(S'S11'
I0
I1
tRp1139
(I3
S'|'
NNNI11
I1
I0
tbS'k4T6GaDrcjs'
tRp1140
ag3
(g4
(S'S11'
I0
I1
tRp1141
(I3
S'|'
NNNI11
I1
I0
tbS'0AkGtPzl7D8'
tRp1142
ag3
(g4
(S'S11'
I0
I1
tRp1143
(I3
S'|'
NNNI11
I1
I0
tbS'uyeQsv2tq44'
tRp1144
ag3
(g4
(S'S6'
I0
I1
tRp1145
(I3
S'|'
NNNI6
I1
I0
tbS'208299'
tRp1146
ag3
(g4
(S'S11'
I0
I1
tRp1147
(I3
S'|'
NNNI11
I1
I0
tbS'wtCKzu8eVJ0'
tRp1148
ag3
(g4
(S'S11'
I0
I1
tRp1149
(I3
S'|'
NNNI11
I1
I0
tbS'87MsiC3E2-w'
tRp1150
ag3
(g4
(S'S11'
I0
I1
tRp1151
(I3
S'|'
NNNI11
I1
I0
tbS'mxa4KXSz9rw'
tRp1152
ag3
(g4
(S'S6'
I0
I1
tRp1153
(I3
S'|'
NNNI6
I1
I0
tbS'264418'
tRp1154
ag3
(g4
(S'S11'
I0
I1
tRp1155
(I3
S'|'
NNNI11
I1
I0
tbS'SYnygYs-fAg'
tRp1156
ag3
(g4
(S'S11'
I0
I1
tRp1157
(I3
S'|'
NNNI11
I1
I0
tbS'YJJoYkFPmds'
tRp1158
ag3
(g4
(S'S11'
I0
I1
tRp1159
(I3
S'|'
NNNI11
I1
I0
tbS'wvMA0r3esw8'
tRp1160
ag3
(g4
(S'S6'
I0
I1
tRp1161
(I3
S'|'
NNNI6
I1
I0
tbS'238060'
tRp1162
ag3
(g4
(S'S11'
I0
I1
tRp1163
(I3
S'|'
NNNI11
I1
I0
tbS'Uw1nWfSuyo8'
tRp1164
ag3
(g4
(S'S11'
I0
I1
tRp1165
(I3
S'|'
NNNI11
I1
I0
tbS'Jz9nlw15QZo'
tRp1166
ag3
(g4
(S'S11'
I0
I1
tRp1167
(I3
S'|'
NNNI11
I1
I0
tbS'WSjlhBDxNW8'
tRp1168
ag3
(g4
(S'S11'
I0
I1
tRp1169
(I3
S'|'
NNNI11
I1
I0
tbS'Zg9DKOHJdw8'
tRp1170
ag3
(g4
(S'S6'
I0
I1
tRp1171
(I3
S'|'
NNNI6
I1
I0
tbS'102184'
tRp1172
ag3
(g4
(S'S11'
I0
I1
tRp1173
(I3
S'|'
NNNI11
I1
I0
tbS'3paDwuRQP1w'
tRp1174
ag3
(g4
(S'S11'
I0
I1
tRp1175
(I3
S'|'
NNNI11
I1
I0
tbS'MZoLQD83R-4'
tRp1176
ag3
(g4
(S'S11'
I0
I1
tRp1177
(I3
S'|'
NNNI11
I1
I0
tbS'IiGzuoblKSM'
tRp1178
ag3
(g4
(S'S11'
I0
I1
tRp1179
(I3
S'|'
NNNI11
I1
I0
tbS'olVQZV_1rdA'
tRp1180
ag3
(g4
(S'S11'
I0
I1
tRp1181
(I3
S'|'
NNNI11
I1
I0
tbS'_26JmJnPKfM'
tRp1182
ag3
(g4
(S'S11'
I0
I1
tRp1183
(I3
S'|'
NNNI11
I1
I0
tbS'RST6PgpsLws'
tRp1184
ag3
(g4
(S'S11'
I0
I1
tRp1185
(I3
S'|'
NNNI11
I1
I0
tbS'0BVed2nBq1g'
tRp1186
ag3
(g4
(S'S11'
I0
I1
tRp1187
(I3
S'|'
NNNI11
I1
I0
tbS'2YwgSmmLibs'
tRp1188
ag3
(g4
(S'S11'
I0
I1
tRp1189
(I3
S'|'
NNNI11
I1
I0
tbS'JGZb_ygtB0g'
tRp1190
ag3
(g4
(S'S11'
I0
I1
tRp1191
(I3
S'|'
NNNI11
I1
I0
tbS'dbpGH5iP0GE'
tRp1192
ag3
(g4
(S'S11'
I0
I1
tRp1193
(I3
S'|'
NNNI11
I1
I0
tbS'U4-u5NZLA_w'
tRp1194
ag3
(g4
(S'S11'
I0
I1
tRp1195
(I3
S'|'
NNNI11
I1
I0
tbS'Zae-zQ3VBpY'
tRp1196
ag3
(g4
(S'S5'
I0
I1
tRp1197
(I3
S'|'
NNNI5
I1
I0
tbS'89951'
tRp1198
ag3
(g4
(S'S11'
I0
I1
tRp1199
(I3
S'|'
NNNI11
I1
I0
tbS'GSnt_fW8qjI'
tRp1200
ag3
(g4
(S'S6'
I0
I1
tRp1201
(I3
S'|'
NNNI6
I1
I0
tbS'233366'
tRp1202
ag3
(g4
(S'S11'
I0
I1
tRp1203
(I3
S'|'
NNNI11
I1
I0
tbS'ULkFbie8g-I'
tRp1204
ag3
(g4
(S'S11'
I0
I1
tRp1205
(I3
S'|'
NNNI11
I1
I0
tbS'PbyI-sUzLZY'
tRp1206
ag3
(g4
(S'S11'
I0
I1
tRp1207
(I3
S'|'
NNNI11
I1
I0
tbS'SCXp4l0CO4s'
tRp1208
ag3
(g4
(S'S6'
I0
I1
tRp1209
(I3
S'|'
NNNI6
I1
I0
tbS'216857'
tRp1210
ag3
(g4
(S'S11'
I0
I1
tRp1211
(I3
S'|'
NNNI11
I1
I0
tbS'AHU3PUztC_M'
tRp1212
ag3
(g4
(S'S11'
I0
I1
tRp1213
(I3
S'|'
NNNI11
I1
I0
tbS'RdExUaEIWIk'
tRp1214
ag3
(g4
(S'S11'
I0
I1
tRp1215
(I3
S'|'
NNNI11
I1
I0
tbS'zwTrXwi54us'
tRp1216
ag3
(g4
(S'S11'
I0
I1
tRp1217
(I3
S'|'
NNNI11
I1
I0
tbS'damyXH7mBic'
tRp1218
ag3
(g4
(S'S6'
I0
I1
tRp1219
(I3
S'|'
NNNI6
I1
I0
tbS'224599'
tRp1220
ag3
(g4
(S'S6'
I0
I1
tRp1221
(I3
S'|'
NNNI6
I1
I0
tbS'238683'
tRp1222
ag3
(g4
(S'S5'
I0
I1
tRp1223
(I3
S'|'
NNNI5
I1
I0
tbS'22880'
tRp1224
ag3
(g4
(S'S11'
I0
I1
tRp1225
(I3
S'|'
NNNI11
I1
I0
tbS'Cb8ay6WtJuM'
tRp1226
ag3
(g4
(S'S11'
I0
I1
tRp1227
(I3
S'|'
NNNI11
I1
I0
tbS'bMuoPr5-Yt4'
tRp1228
ag3
(g4
(S'S11'
I0
I1
tRp1229
(I3
S'|'
NNNI11
I1
I0
tbS'Rt9rN1ntS3E'
tRp1230
ag3
(g4
(S'S11'
I0
I1
tRp1231
(I3
S'|'
NNNI11
I1
I0
tbS'Yn8vNC41UMg'
tRp1232
ag3
(g4
(S'S6'
I0
I1
tRp1233
(I3
S'|'
NNNI6
I1
I0
tbS'202810'
tRp1234
ag3
(g4
(S'S11'
I0
I1
tRp1235
(I3
S'|'
NNNI11
I1
I0
tbS'_4K620KW_Is'
tRp1236
ag3
(g4
(S'S6'
I0
I1
tRp1237
(I3
S'|'
NNNI6
I1
I0
tbS'252177'
tRp1238
ag3
(g4
(S'S11'
I0
I1
tRp1239
(I3
S'|'
NNNI11
I1
I0
tbS'rApOTQgFW6Y'
tRp1240
ag3
(g4
(S'S11'
I0
I1
tRp1241
(I3
S'|'
NNNI11
I1
I0
tbS'Rugd2NMu4bA'
tRp1242
ag3
(g4
(S'S11'
I0
I1
tRp1243
(I3
S'|'
NNNI11
I1
I0
tbS'HfLVQZLvcH8'
tRp1244
ag3
(g4
(S'S11'
I0
I1
tRp1245
(I3
S'|'
NNNI11
I1
I0
tbS'ssH8WQF4eN0'
tRp1246
ag3
(g4
(S'S11'
I0
I1
tRp1247
(I3
S'|'
NNNI11
I1
I0
tbS'IlgnbEdOhmI'
tRp1248
ag3
(g4
(S'S11'
I0
I1
tRp1249
(I3
S'|'
NNNI11
I1
I0
tbS'HS-2vVP95u8'
tRp1250
ag3
(g4
(S'S11'
I0
I1
tRp1251
(I3
S'|'
NNNI11
I1
I0
tbS'0zl_GDVzykw'
tRp1252
ag3
(g4
(S'S6'
I0
I1
tRp1253
(I3
S'|'
NNNI6
I1
I0
tbS'126831'
tRp1254
ag3
(g4
(S'S6'
I0
I1
tRp1255
(I3
S'|'
NNNI6
I1
I0
tbS'130426'
tRp1256
ag3
(g4
(S'S11'
I0
I1
tRp1257
(I3
S'|'
NNNI11
I1
I0
tbS'60Qw70Rd9Yg'
tRp1258
ag3
(g4
(S'S11'
I0
I1
tRp1259
(I3
S'|'
NNNI11
I1
I0
tbS'kY64gXOapYk'
tRp1260
ag3
(g4
(S'S11'
I0
I1
tRp1261
(I3
S'|'
NNNI11
I1
I0
tbS'MpuWcGn2Lcg'
tRp1262
ag3
(g4
(S'S6'
I0
I1
tRp1263
(I3
S'|'
NNNI6
I1
I0
tbS'119348'
tRp1264
ag3
(g4
(S'S11'
I0
I1
tRp1265
(I3
S'|'
NNNI11
I1
I0
tbS'sKwPCpFtUUI'
tRp1266
ag3
(g4
(S'S11'
I0
I1
tRp1267
(I3
S'|'
NNNI11
I1
I0
tbS'YRmjALBdTdE'
tRp1268
ag3
(g4
(S'S11'
I0
I1
tRp1269
(I3
S'|'
NNNI11
I1
I0
tbS'FylhSeozvG8'
tRp1270
ag3
(g4
(S'S11'
I0
I1
tRp1271
(I3
S'|'
NNNI11
I1
I0
tbS'2iukwQJjGHE'
tRp1272
ag3
(g4
(S'S11'
I0
I1
tRp1273
(I3
S'|'
NNNI11
I1
I0
tbS'wOKWTFYYMuk'
tRp1274
ag3
(g4
(S'S6'
I0
I1
tRp1275
(I3
S'|'
NNNI6
I1
I0
tbS'209775'
tRp1276
ag3
(g4
(S'S11'
I0
I1
tRp1277
(I3
S'|'
NNNI11
I1
I0
tbS'jzNIU-w0MVo'
tRp1278
ag3
(g4
(S'S11'
I0
I1
tRp1279
(I3
S'|'
NNNI11
I1
I0
tbS'znNt--6itO4'
tRp1280
ag3
(g4
(S'S11'
I0
I1
tRp1281
(I3
S'|'
NNNI11
I1
I0
tbS'RE-LIPOFnrE'
tRp1282
ag3
(g4
(S'S11'
I0
I1
tRp1283
(I3
S'|'
NNNI11
I1
I0
tbS'RvIohowRPAk'
tRp1284
ag3
(g4
(S'S11'
I0
I1
tRp1285
(I3
S'|'
NNNI11
I1
I0
tbS'ACOlIiRdDyE'
tRp1286
ag3
(g4
(S'S11'
I0
I1
tRp1287
(I3
S'|'
NNNI11
I1
I0
tbS'Y9fvHRNz2Bs'
tRp1288
ag3
(g4
(S'S11'
I0
I1
tRp1289
(I3
S'|'
NNNI11
I1
I0
tbS'2-4autDbHVQ'
tRp1290
ag3
(g4
(S'S11'
I0
I1
tRp1291
(I3
S'|'
NNNI11
I1
I0
tbS's53UAEi7JEY'
tRp1292
ag3
(g4
(S'S11'
I0
I1
tRp1293
(I3
S'|'
NNNI11
I1
I0
tbS'r_vjlTcrI-U'
tRp1294
ag3
(g4
(S'S11'
I0
I1
tRp1295
(I3
S'|'
NNNI11
I1
I0
tbS'EpadyoYlAjQ'
tRp1296
ag3
(g4
(S'S11'
I0
I1
tRp1297
(I3
S'|'
NNNI11
I1
I0
tbS'VjAvqFXEmmk'
tRp1298
ag3
(g4
(S'S5'
I0
I1
tRp1299
(I3
S'|'
NNNI5
I1
I0
tbS'96194'
tRp1300
ag3
(g4
(S'S11'
I0
I1
tRp1301
(I3
S'|'
NNNI11
I1
I0
tbS'GkoBk5K-FH0'
tRp1302
ag3
(g4
(S'S11'
I0
I1
tRp1303
(I3
S'|'
NNNI11
I1
I0
tbS'gv43BPYYxKQ'
tRp1304
ag3
(g4
(S'S11'
I0
I1
tRp1305
(I3
S'|'
NNNI11
I1
I0
tbS'0WIwQgH4lKg'
tRp1306
ag3
(g4
(S'S6'
I0
I1
tRp1307
(I3
S'|'
NNNI6
I1
I0
tbS'140293'
tRp1308
ag3
(g4
(S'S11'
I0
I1
tRp1309
(I3
S'|'
NNNI11
I1
I0
tbS'7sgAWvbLtiM'
tRp1310
ag3
(g4
(S'S11'
I0
I1
tRp1311
(I3
S'|'
NNNI11
I1
I0
tbS'q7BxnIM2_z0'
tRp1312
ag3
(g4
(S'S11'
I0
I1
tRp1313
(I3
S'|'
NNNI11
I1
I0
tbS'B1PzCwfgXyU'
tRp1314
ag3
(g4
(S'S11'
I0
I1
tRp1315
(I3
S'|'
NNNI11
I1
I0
tbS'6ng8CZ0ULK4'
tRp1316
ag3
(g4
(S'S11'
I0
I1
tRp1317
(I3
S'|'
NNNI11
I1
I0
tbS'0OXeN3MhFeA'
tRp1318
ag3
(g4
(S'S11'
I0
I1
tRp1319
(I3
S'|'
NNNI11
I1
I0
tbS'KLy4aBLqwCk'
tRp1320
ag3
(g4
(S'S11'
I0
I1
tRp1321
(I3
S'|'
NNNI11
I1
I0
tbS'uQds2dN1AiM'
tRp1322
ag3
(g4
(S'S11'
I0
I1
tRp1323
(I3
S'|'
NNNI11
I1
I0
tbS'_ZlF5Q9W1DM'
tRp1324
ag3
(g4
(S'S6'
I0
I1
tRp1325
(I3
S'|'
NNNI6
I1
I0
tbS'273237'
tRp1326
ag3
(g4
(S'S6'
I0
I1
tRp1327
(I3
S'|'
NNNI6
I1
I0
tbS'231025'
tRp1328
ag3
(g4
(S'S11'
I0
I1
tRp1329
(I3
S'|'
NNNI11
I1
I0
tbS'HgDdU_RB9UA'
tRp1330
ag3
(g4
(S'S6'
I0
I1
tRp1331
(I3
S'|'
NNNI6
I1
I0
tbS'128949'
tRp1332
ag3
(g4
(S'S11'
I0
I1
tRp1333
(I3
S'|'
NNNI11
I1
I0
tbS'qFsGMA75-oQ'
tRp1334
ag3
(g4
(S'S6'
I0
I1
tRp1335
(I3
S'|'
NNNI6
I1
I0
tbS'270628'
tRp1336
ag3
(g4
(S'S11'
I0
I1
tRp1337
(I3
S'|'
NNNI11
I1
I0
tbS'2vX-ZRQQDwo'
tRp1338
ag3
(g4
(S'S11'
I0
I1
tRp1339
(I3
S'|'
NNNI11
I1
I0
tbS'95mDHiLeDCM'
tRp1340
ag3
(g4
(S'S11'
I0
I1
tRp1341
(I3
S'|'
NNNI11
I1
I0
tbS'18QjfdhJEM4'
tRp1342
ag3
(g4
(S'S11'
I0
I1
tRp1343
(I3
S'|'
NNNI11
I1
I0
tbS'Tdw0fJt0lco'
tRp1344
ag3
(g4
(S'S5'
I0
I1
tRp1345
(I3
S'|'
NNNI5
I1
I0
tbS'74870'
tRp1346
ag3
(g4
(S'S11'
I0
I1
tRp1347
(I3
S'|'
NNNI11
I1
I0
tbS'LX2rT5C3sJs'
tRp1348
ag3
(g4
(S'S11'
I0
I1
tRp1349
(I3
S'|'
NNNI11
I1
I0
tbS'iex7I7iVnLk'
tRp1350
ag3
(g4
(S'S11'
I0
I1
tRp1351
(I3
S'|'
NNNI11
I1
I0
tbS'33ueXDUn3mA'
tRp1352
ag3
(g4
(S'S11'
I0
I1
tRp1353
(I3
S'|'
NNNI11
I1
I0
tbS'G4HMKRdIva0'
tRp1354
ag3
(g4
(S'S11'
I0
I1
tRp1355
(I3
S'|'
NNNI11
I1
I0
tbS'tw2xFbfgV4U'
tRp1356
ag3
(g4
(S'S11'
I0
I1
tRp1357
(I3
S'|'
NNNI11
I1
I0
tbS't4-ZulW5np4'
tRp1358
ag3
(g4
(S'S6'
I0
I1
tRp1359
(I3
S'|'
NNNI6
I1
I0
tbS'236696'
tRp1360
ag3
(g4
(S'S11'
I0
I1
tRp1361
(I3
S'|'
NNNI11
I1
I0
tbS'zURYO3k8lW0'
tRp1362
ag3
(g4
(S'S11'
I0
I1
tRp1363
(I3
S'|'
NNNI11
I1
I0
tbS'wfLrS6CdFs4'
tRp1364
ag3
(g4
(S'S11'
I0
I1
tRp1365
(I3
S'|'
NNNI11
I1
I0
tbS'L6pg3DQKoH4'
tRp1366
ag3
(g4
(S'S5'
I0
I1
tRp1367
(I3
S'|'
NNNI5
I1
I0
tbS'80627'
tRp1368
ag3
(g4
(S'S5'
I0
I1
tRp1369
(I3
S'|'
NNNI5
I1
I0
tbS'80620'
tRp1370
ag3
(g4
(S'S11'
I0
I1
tRp1371
(I3
S'|'
NNNI11
I1
I0
tbS'oj7A8mpuBeQ'
tRp1372
ag3
(g4
(S'S11'
I0
I1
tRp1373
(I3
S'|'
NNNI11
I1
I0
tbS'xNYsfeSgDCQ'
tRp1374
ag3
(g4
(S'S5'
I0
I1
tRp1375
(I3
S'|'
NNNI5
I1
I0
tbS'11650'
tRp1376
ag3
(g4
(S'S11'
I0
I1
tRp1377
(I3
S'|'
NNNI11
I1
I0
tbS'afDJvn5nmtY'
tRp1378
ag3
(g4
(S'S11'
I0
I1
tRp1379
(I3
S'|'
NNNI11
I1
I0
tbS'YY2yjEEoB3U'
tRp1380
ag3
(g4
(S'S11'
I0
I1
tRp1381
(I3
S'|'
NNNI11
I1
I0
tbS'pFh-SLxltms'
tRp1382
ag3
(g4
(S'S11'
I0
I1
tRp1383
(I3
S'|'
NNNI11
I1
I0
tbS'ZLCK8WX6qFQ'
tRp1384
ag3
(g4
(S'S11'
I0
I1
tRp1385
(I3
S'|'
NNNI11
I1
I0
tbS'1F0qH0EEBfo'
tRp1386
ag3
(g4
(S'S11'
I0
I1
tRp1387
(I3
S'|'
NNNI11
I1
I0
tbS'VzDXgBOe5iI'
tRp1388
ag3
(g4
(S'S11'
I0
I1
tRp1389
(I3
S'|'
NNNI11
I1
I0
tbS'L2uC4_Co9uw'
tRp1390
ag3
(g4
(S'S11'
I0
I1
tRp1391
(I3
S'|'
NNNI11
I1
I0
tbS'UPghCarcnMc'
tRp1392
ag3
(g4
(S'S11'
I0
I1
tRp1393
(I3
S'|'
NNNI11
I1
I0
tbS'3ZmLhK_YHl8'
tRp1394
ag3
(g4
(S'S11'
I0
I1
tRp1395
(I3
S'|'
NNNI11
I1
I0
tbS'DaXkixKFEvE'
tRp1396
ag3
(g4
(S'S11'
I0
I1
tRp1397
(I3
S'|'
NNNI11
I1
I0
tbS'Kpe5fISxRTg'
tRp1398
ag3
(g4
(S'S11'
I0
I1
tRp1399
(I3
S'|'
NNNI11
I1
I0
tbS'QXPOQW2tRBs'
tRp1400
ag3
(g4
(S'S11'
I0
I1
tRp1401
(I3
S'|'
NNNI11
I1
I0
tbS'ZW4Oe_fKJM0'
tRp1402
ag3
(g4
(S'S11'
I0
I1
tRp1403
(I3
S'|'
NNNI11
I1
I0
tbS'We5nTulz1Vs'
tRp1404
ag3
(g4
(S'S6'
I0
I1
tRp1405
(I3
S'|'
NNNI6
I1
I0
tbS'261326'
tRp1406
ag3
(g4
(S'S11'
I0
I1
tRp1407
(I3
S'|'
NNNI11
I1
I0
tbS'oecQ9yDtfx0'
tRp1408
ag3
(g4
(S'S6'
I0
I1
tRp1409
(I3
S'|'
NNNI6
I1
I0
tbS'238023'
tRp1410
ag3
(g4
(S'S11'
I0
I1
tRp1411
(I3
S'|'
NNNI11
I1
I0
tbS'6vbd4o5rIjM'
tRp1412
ag3
(g4
(S'S11'
I0
I1
tRp1413
(I3
S'|'
NNNI11
I1
I0
tbS'4VA4kqMnEqA'
tRp1414
ag3
(g4
(S'S11'
I0
I1
tRp1415
(I3
S'|'
NNNI11
I1
I0
tbS'XCyngF93SmU'
tRp1416
ag3
(g4
(S'S11'
I0
I1
tRp1417
(I3
S'|'
NNNI11
I1
I0
tbS'zWfDRPy4lXQ'
tRp1418
ag3
(g4
(S'S11'
I0
I1
tRp1419
(I3
S'|'
NNNI11
I1
I0
tbS'ZXHX_e6HCI0'
tRp1420
ag3
(g4
(S'S11'
I0
I1
tRp1421
(I3
S'|'
NNNI11
I1
I0
tbS'tdIZZ9v0IGA'
tRp1422
ag3
(g4
(S'S11'
I0
I1
tRp1423
(I3
S'|'
NNNI11
I1
I0
tbS'OSyKmOye5Uo'
tRp1424
ag3
(g4
(S'S11'
I0
I1
tRp1425
(I3
S'|'
NNNI11
I1
I0
tbS'iR1Os7FVGHs'
tRp1426
ag3
(g4
(S'S11'
I0
I1
tRp1427
(I3
S'|'
NNNI11
I1
I0
tbS'Nzh2KkaGwrE'
tRp1428
ag3
(g4
(S'S11'
I0
I1
tRp1429
(I3
S'|'
NNNI11
I1
I0
tbS'ysGFcG_PI5I'
tRp1430
ag3
(g4
(S'S11'
I0
I1
tRp1431
(I3
S'|'
NNNI11
I1
I0
tbS'oZkWWCQw2Js'
tRp1432
ag3
(g4
(S'S11'
I0
I1
tRp1433
(I3
S'|'
NNNI11
I1
I0
tbS'iM3wSwoAtwk'
tRp1434
ag3
(g4
(S'S11'
I0
I1
tRp1435
(I3
S'|'
NNNI11
I1
I0
tbS'Lxs_6Tvq12E'
tRp1436
ag3
(g4
(S'S11'
I0
I1
tRp1437
(I3
S'|'
NNNI11
I1
I0
tbS'erBIIKA6r5Y'
tRp1438
ag3
(g4
(S'S11'
I0
I1
tRp1439
(I3
S'|'
NNNI11
I1
I0
tbS'sK9_de5Jx4U'
tRp1440
ag3
(g4
(S'S11'
I0
I1
tRp1441
(I3
S'|'
NNNI11
I1
I0
tbS'VoETCD8fBLI'
tRp1442
ag3
(g4
(S'S11'
I0
I1
tRp1443
(I3
S'|'
NNNI11
I1
I0
tbS'DQ7QKE3hzVg'
tRp1444
ag3
(g4
(S'S11'
I0
I1
tRp1445
(I3
S'|'
NNNI11
I1
I0
tbS'IawsOlEKRf0'
tRp1446
ag3
(g4
(S'S11'
I0
I1
tRp1447
(I3
S'|'
NNNI11
I1
I0
tbS'pf6HYOOwfGE'
tRp1448
ag3
(g4
(S'S11'
I0
I1
tRp1449
(I3
S'|'
NNNI11
I1
I0
tbS'z8bWG2z-bMM'
tRp1450
ag3
(g4
(S'S11'
I0
I1
tRp1451
(I3
S'|'
NNNI11
I1
I0
tbS'ZZ1IyZaMTWQ'
tRp1452
ag3
(g4
(S'S5'
I0
I1
tRp1453
(I3
S'|'
NNNI5
I1
I0
tbS'33439'
tRp1454
ag3
(g4
(S'S11'
I0
I1
tRp1455
(I3
S'|'
NNNI11
I1
I0
tbS'MRU65o1odI4'
tRp1456
ag3
(g4
(S'S11'
I0
I1
tRp1457
(I3
S'|'
NNNI11
I1
I0
tbS'V5lfNohNlEg'
tRp1458
ag3
(g4
(S'S11'
I0
I1
tRp1459
(I3
S'|'
NNNI11
I1
I0
tbS'4hEWns7JBg0'
tRp1460
ag3
(g4
(S'S11'
I0
I1
tRp1461
(I3
S'|'
NNNI11
I1
I0
tbS'3y2YInNUmHY'
tRp1462
ag3
(g4
(S'S11'
I0
I1
tRp1463
(I3
S'|'
NNNI11
I1
I0
tbS'qrI7XCKRFNk'
tRp1464
ag3
(g4
(S'S11'
I0
I1
tRp1465
(I3
S'|'
NNNI11
I1
I0
tbS'92tWNUhG9DY'
tRp1466
ag3
(g4
(S'S6'
I0
I1
tRp1467
(I3
S'|'
NNNI6
I1
I0
tbS'265959'
tRp1468
ag3
(g4
(S'S5'
I0
I1
tRp1469
(I3
S'|'
NNNI5
I1
I0
tbS'30162'
tRp1470
ag3
(g4
(S'S11'
I0
I1
tRp1471
(I3
S'|'
NNNI11
I1
I0
tbS'SWhfaL7AdEc'
tRp1472
ag3
(g4
(S'S11'
I0
I1
tRp1473
(I3
S'|'
NNNI11
I1
I0
tbS'RAiO_rChmdU'
tRp1474
ag3
(g4
(S'S11'
I0
I1
tRp1475
(I3
S'|'
NNNI11
I1
I0
tbS'b7DK08bWU6c'
tRp1476
ag3
(g4
(S'S11'
I0
I1
tRp1477
(I3
S'|'
NNNI11
I1
I0
tbS'nKiC9sEP2vM'
tRp1478
ag3
(g4
(S'S11'
I0
I1
tRp1479
(I3
S'|'
NNNI11
I1
I0
tbS'AlmUwZgY6bs'
tRp1480
ag3
(g4
(S'S11'
I0
I1
tRp1481
(I3
S'|'
NNNI11
I1
I0
tbS'uWW1ejwFURI'
tRp1482
ag3
(g4
(S'S11'
I0
I1
tRp1483
(I3
S'|'
NNNI11
I1
I0
tbS'qP4uuMI-JSk'
tRp1484
ag3
(g4
(S'S6'
I0
I1
tRp1485
(I3
S'|'
NNNI6
I1
I0
tbS'255343'
tRp1486
ag3
(g4
(S'S11'
I0
I1
tRp1487
(I3
S'|'
NNNI11
I1
I0
tbS'Bf5owLv3X98'
tRp1488
ag3
(g4
(S'S11'
I0
I1
tRp1489
(I3
S'|'
NNNI11
I1
I0
tbS'LZl9Sj1safM'
tRp1490
ag3
(g4
(S'S6'
I0
I1
tRp1491
(I3
S'|'
NNNI6
I1
I0
tbS'137827'
tRp1492
ag3
(g4
(S'S6'
I0
I1
tRp1493
(I3
S'|'
NNNI6
I1
I0
tbS'233171'
tRp1494
ag3
(g4
(S'S11'
I0
I1
tRp1495
(I3
S'|'
NNNI11
I1
I0
tbS'wxxqXK9x-64'
tRp1496
ag3
(g4
(S'S11'
I0
I1
tRp1497
(I3
S'|'
NNNI11
I1
I0
tbS'otna1VHHCow'
tRp1498
ag3
(g4
(S'S11'
I0
I1
tRp1499
(I3
S'|'
NNNI11
I1
I0
tbS'wLJohZMqR-g'
tRp1500
ag3
(g4
(S'S11'
I0
I1
tRp1501
(I3
S'|'
NNNI11
I1
I0
tbS'wlrb0HyIs-Q'
tRp1502
ag3
(g4
(S'S11'
I0
I1
tRp1503
(I3
S'|'
NNNI11
I1
I0
tbS'q1_knonj0Lw'
tRp1504
ag3
(g4
(S'S11'
I0
I1
tRp1505
(I3
S'|'
NNNI11
I1
I0
tbS'o8OZGBDPD8M'
tRp1506
ag3
(g4
(S'S11'
I0
I1
tRp1507
(I3
S'|'
NNNI11
I1
I0
tbS'YF3mDOuF46M'
tRp1508
ag3
(g4
(S'S6'
I0
I1
tRp1509
(I3
S'|'
NNNI6
I1
I0
tbS'271594'
tRp1510
ag3
(g4
(S'S11'
I0
I1
tRp1511
(I3
S'|'
NNNI11
I1
I0
tbS'-vxjVxOeScU'
tRp1512
ag3
(g4
(S'S11'
I0
I1
tRp1513
(I3
S'|'
NNNI11
I1
I0
tbS'8ovb-GaZ3QE'
tRp1514
ag3
(g4
(S'S11'
I0
I1
tRp1515
(I3
S'|'
NNNI11
I1
I0
tbS'6MloL1gIccs'
tRp1516
ag3
(g4
(S'S11'
I0
I1
tRp1517
(I3
S'|'
NNNI11
I1
I0
tbS'W-pA0lOGLR0'
tRp1518
ag3
(g4
(S'S11'
I0
I1
tRp1519
(I3
S'|'
NNNI11
I1
I0
tbS'fjE2EZKgQm8'
tRp1520
ag3
(g4
(S'S6'
I0
I1
tRp1521
(I3
S'|'
NNNI6
I1
I0
tbS'271598'
tRp1522
ag3
(g4
(S'S11'
I0
I1
tRp1523
(I3
S'|'
NNNI11
I1
I0
tbS'oyHKiX5YGDE'
tRp1524
ag3
(g4
(S'S11'
I0
I1
tRp1525
(I3
S'|'
NNNI11
I1
I0
tbS'c5-L8vC6_sk'
tRp1526
ag3
(g4
(S'S11'
I0
I1
tRp1527
(I3
S'|'
NNNI11
I1
I0
tbS'F5SGdvSRJmo'
tRp1528
ag3
(g4
(S'S11'
I0
I1
tRp1529
(I3
S'|'
NNNI11
I1
I0
tbS'R-HKj8Yn06k'
tRp1530
ag3
(g4
(S'S6'
I0
I1
tRp1531
(I3
S'|'
NNNI6
I1
I0
tbS'288714'
tRp1532
ag3
(g4
(S'S11'
I0
I1
tRp1533
(I3
S'|'
NNNI11
I1
I0
tbS'zj4PzGtFwJM'
tRp1534
ag3
(g4
(S'S11'
I0
I1
tRp1535
(I3
S'|'
NNNI11
I1
I0
tbS'3aD0xAgxxyw'
tRp1536
ag3
(g4
(S'S11'
I0
I1
tRp1537
(I3
S'|'
NNNI11
I1
I0
tbS'PYylJk8R9Ak'
tRp1538
ag3
(g4
(S'S6'
I0
I1
tRp1539
(I3
S'|'
NNNI6
I1
I0
tbS'110766'
tRp1540
ag3
(g4
(S'S11'
I0
I1
tRp1541
(I3
S'|'
NNNI11
I1
I0
tbS'JdFaSggG58c'
tRp1542
ag3
(g4
(S'S11'
I0
I1
tRp1543
(I3
S'|'
NNNI11
I1
I0
tbS'T-vqHR989bM'
tRp1544
ag3
(g4
(S'S11'
I0
I1
tRp1545
(I3
S'|'
NNNI11
I1
I0
tbS'Q2uHXKA8cq8'
tRp1546
ag3
(g4
(S'S11'
I0
I1
tRp1547
(I3
S'|'
NNNI11
I1
I0
tbS'3GyEnzE1NTQ'
tRp1548
ag3
(g4
(S'S6'
I0
I1
tRp1549
(I3
S'|'
NNNI6
I1
I0
tbS'131650'
tRp1550
ag3
(g4
(S'S11'
I0
I1
tRp1551
(I3
S'|'
NNNI11
I1
I0
tbS'mRnEJOLkhp8'
tRp1552
ag3
(g4
(S'S11'
I0
I1
tRp1553
(I3
S'|'
NNNI11
I1
I0
tbS'lzyVWNrkgbQ'
tRp1554
ag3
(g4
(S'S6'
I0
I1
tRp1555
(I3
S'|'
NNNI6
I1
I0
tbS'225343'
tRp1556
ag3
(g4
(S'S11'
I0
I1
tRp1557
(I3
S'|'
NNNI11
I1
I0
tbS'sPxoGNvnVzg'
tRp1558
ag3
(g4
(S'S11'
I0
I1
tRp1559
(I3
S'|'
NNNI11
I1
I0
tbS'jPf0LjZAS14'
tRp1560
ag3
(g4
(S'S6'
I0
I1
tRp1561
(I3
S'|'
NNNI6
I1
I0
tbS'206606'
tRp1562
ag3
(g4
(S'S11'
I0
I1
tRp1563
(I3
S'|'
NNNI11
I1
I0
tbS'Rse6laKf1i8'
tRp1564
ag3
(g4
(S'S5'
I0
I1
tRp1565
(I3
S'|'
NNNI5
I1
I0
tbS'50453'
tRp1566
ag3
(g4
(S'S11'
I0
I1
tRp1567
(I3
S'|'
NNNI11
I1
I0
tbS'8-Hi9NmF4rM'
tRp1568
ag3
(g4
(S'S11'
I0
I1
tRp1569
(I3
S'|'
NNNI11
I1
I0
tbS'yDIFWzOBjXc'
tRp1570
ag3
(g4
(S'S11'
I0
I1
tRp1571
(I3
S'|'
NNNI11
I1
I0
tbS'S_tGoxSEh5Y'
tRp1572
ag3
(g4
(S'S11'
I0
I1
tRp1573
(I3
S'|'
NNNI11
I1
I0
tbS'fnFoRPqkQeo'
tRp1574
ag3
(g4
(S'S11'
I0
I1
tRp1575
(I3
S'|'
NNNI11
I1
I0
tbS'OFBc3z99bIc'
tRp1576
ag3
(g4
(S'S11'
I0
I1
tRp1577
(I3
S'|'
NNNI11
I1
I0
tbS'ta26Z2YEVMQ'
tRp1578
ag3
(g4
(S'S11'
I0
I1
tRp1579
(I3
S'|'
NNNI11
I1
I0
tbS'TVhXqAI9gyA'
tRp1580
ag3
(g4
(S'S11'
I0
I1
tRp1581
(I3
S'|'
NNNI11
I1
I0
tbS'FX87sfrE47w'
tRp1582
ag3
(g4
(S'S11'
I0
I1
tRp1583
(I3
S'|'
NNNI11
I1
I0
tbS'2JY5HXBWO84'
tRp1584
ag3
(g4
(S'S11'
I0
I1
tRp1585
(I3
S'|'
NNNI11
I1
I0
tbS'0FA32bEZ6xI'
tRp1586
ag3
(g4
(S'S11'
I0
I1
tRp1587
(I3
S'|'
NNNI11
I1
I0
tbS'gzZ8NTeTzRs'
tRp1588
ag3
(g4
(S'S11'
I0
I1
tRp1589
(I3
S'|'
NNNI11
I1
I0
tbS'mgpoY1-110U'
tRp1590
ag3
(g4
(S'S11'
I0
I1
tRp1591
(I3
S'|'
NNNI11
I1
I0
tbS'XyBU_gZtU0M'
tRp1592
ag3
(g4
(S'S11'
I0
I1
tRp1593
(I3
S'|'
NNNI11
I1
I0
tbS'7rMLN0KKE5k'
tRp1594
ag3
(g4
(S'S11'
I0
I1
tRp1595
(I3
S'|'
NNNI11
I1
I0
tbS'2QOf2wSu0j0'
tRp1596
ag3
(g4
(S'S6'
I0
I1
tRp1597
(I3
S'|'
NNNI6
I1
I0
tbS'225768'
tRp1598
ag3
(g4
(S'S6'
I0
I1
tRp1599
(I3
S'|'
NNNI6
I1
I0
tbS'282586'
tRp1600
ag3
(g4
(S'S11'
I0
I1
tRp1601
(I3
S'|'
NNNI11
I1
I0
tbS'dLzsNc_hzkQ'
tRp1602
ag3
(g4
(S'S11'
I0
I1
tRp1603
(I3
S'|'
NNNI11
I1
I0
tbS'o2miCpS7Hwo'
tRp1604
ag3
(g4
(S'S11'
I0
I1
tRp1605
(I3
S'|'
NNNI11
I1
I0
tbS'MnFRVJtHAeo'
tRp1606
ag3
(g4
(S'S11'
I0
I1
tRp1607
(I3
S'|'
NNNI11
I1
I0
tbS'fdK_tsvBXJ8'
tRp1608
ag3
(g4
(S'S11'
I0
I1
tRp1609
(I3
S'|'
NNNI11
I1
I0
tbS'x9E8yaFCX0Y'
tRp1610
ag3
(g4
(S'S11'
I0
I1
tRp1611
(I3
S'|'
NNNI11
I1
I0
tbS'2f6ZHqJ76EU'
tRp1612
ag3
(g4
(S'S11'
I0
I1
tRp1613
(I3
S'|'
NNNI11
I1
I0
tbS'iS91daVpH2E'
tRp1614
ag3
(g4
(S'S11'
I0
I1
tRp1615
(I3
S'|'
NNNI11
I1
I0
tbS'FSGL5K2EEdo'
tRp1616
ag3
(g4
(S'S6'
I0
I1
tRp1617
(I3
S'|'
NNNI6
I1
I0
tbS'136205'
tRp1618
ag3
(g4
(S'S6'
I0
I1
tRp1619
(I3
S'|'
NNNI6
I1
I0
tbS'282560'
tRp1620
ag3
(g4
(S'S6'
I0
I1
tRp1621
(I3
S'|'
NNNI6
I1
I0
tbS'271366'
tRp1622
ag3
(g4
(S'S11'
I0
I1
tRp1623
(I3
S'|'
NNNI11
I1
I0
tbS'JCg26b8EO48'
tRp1624
ag3
(g4
(S'S11'
I0
I1
tRp1625
(I3
S'|'
NNNI11
I1
I0
tbS'5qxZFmIaynE'
tRp1626
ag3
(g4
(S'S6'
I0
I1
tRp1627
(I3
S'|'
NNNI6
I1
I0
tbS'257045'
tRp1628
ag3
(g4
(S'S11'
I0
I1
tRp1629
(I3
S'|'
NNNI11
I1
I0
tbS'7U_z0JfleAw'
tRp1630
ag3
(g4
(S'S11'
I0
I1
tRp1631
(I3
S'|'
NNNI11
I1
I0
tbS'QQVRIGEUa_Q'
tRp1632
ag3
(g4
(S'S11'
I0
I1
tRp1633
(I3
S'|'
NNNI11
I1
I0
tbS'StgqrTr0JqU'
tRp1634
ag3
(g4
(S'S11'
I0
I1
tRp1635
(I3
S'|'
NNNI11
I1
I0
tbS'ATfnMuJJDkk'
tRp1636
ag3
(g4
(S'S11'
I0
I1
tRp1637
(I3
S'|'
NNNI11
I1
I0
tbS'KgXuILFtgJQ'
tRp1638
ag3
(g4
(S'S11'
I0
I1
tRp1639
(I3
S'|'
NNNI11
I1
I0
tbS'RfKxYiFd-fs'
tRp1640
ag3
(g4
(S'S11'
I0
I1
tRp1641
(I3
S'|'
NNNI11
I1
I0
tbS'gC_wF3uKFW0'
tRp1642
ag3
(g4
(S'S11'
I0
I1
tRp1643
(I3
S'|'
NNNI11
I1
I0
tbS'e0ltF8zpEcw'
tRp1644
ag3
(g4
(S'S11'
I0
I1
tRp1645
(I3
S'|'
NNNI11
I1
I0
tbS'GjCUDqWSI6c'
tRp1646
ag3
(g4
(S'S11'
I0
I1
tRp1647
(I3
S'|'
NNNI11
I1
I0
tbS'4Kh5N9W-Jr4'
tRp1648
ag3
(g4
(S'S11'
I0
I1
tRp1649
(I3
S'|'
NNNI11
I1
I0
tbS'DR9Hhpy8aA8'
tRp1650
ag3
(g4
(S'S11'
I0
I1
tRp1651
(I3
S'|'
NNNI11
I1
I0
tbS'6Vg10LxmWUY'
tRp1652
ag3
(g4
(S'S11'
I0
I1
tRp1653
(I3
S'|'
NNNI11
I1
I0
tbS'cZDAM6NjBzE'
tRp1654
ag3
(g4
(S'S11'
I0
I1
tRp1655
(I3
S'|'
NNNI11
I1
I0
tbS'6q5uKCgairk'
tRp1656
ag3
(g4
(S'S11'
I0
I1
tRp1657
(I3
S'|'
NNNI11
I1
I0
tbS'eo8L7lCTjDQ'
tRp1658
ag3
(g4
(S'S6'
I0
I1
tRp1659
(I3
S'|'
NNNI6
I1
I0
tbS'244180'
tRp1660
ag3
(g4
(S'S11'
I0
I1
tRp1661
(I3
S'|'
NNNI11
I1
I0
tbS'xRJXYUZVdas'
tRp1662
ag3
(g4
(S'S11'
I0
I1
tRp1663
(I3
S'|'
NNNI11
I1
I0
tbS'_iy7ftq27xE'
tRp1664
ag3
(g4
(S'S11'
I0
I1
tRp1665
(I3
S'|'
NNNI11
I1
I0
tbS'YQUutkMdLj0'
tRp1666
ag3
(g4
(S'S11'
I0
I1
tRp1667
(I3
S'|'
NNNI11
I1
I0
tbS'avW2m6VHTyg'
tRp1668
ag3
(g4
(S'S11'
I0
I1
tRp1669
(I3
S'|'
NNNI11
I1
I0
tbS'ZMAoUt0SD7E'
tRp1670
ag3
(g4
(S'S11'
I0
I1
tRp1671
(I3
S'|'
NNNI11
I1
I0
tbS'i5of7ZTkyfw'
tRp1672
ag3
(g4
(S'S11'
I0
I1
tRp1673
(I3
S'|'
NNNI11
I1
I0
tbS'icehEYAiimM'
tRp1674
ag3
(g4
(S'S11'
I0
I1
tRp1675
(I3
S'|'
NNNI11
I1
I0
tbS'2RC_DXV_dPQ'
tRp1676
ag3
(g4
(S'S11'
I0
I1
tRp1677
(I3
S'|'
NNNI11
I1
I0
tbS'tvE_DucE0_k'
tRp1678
ag3
(g4
(S'S11'
I0
I1
tRp1679
(I3
S'|'
NNNI11
I1
I0
tbS'FP3o75bpi8k'
tRp1680
ag3
(g4
(S'S11'
I0
I1
tRp1681
(I3
S'|'
NNNI11
I1
I0
tbS'W40BaML7mzc'
tRp1682
ag3
(g4
(S'S6'
I0
I1
tRp1683
(I3
S'|'
NNNI6
I1
I0
tbS'121358'
tRp1684
ag3
(g4
(S'S11'
I0
I1
tRp1685
(I3
S'|'
NNNI11
I1
I0
tbS'skp_SpnIOCM'
tRp1686
ag3
(g4
(S'S6'
I0
I1
tRp1687
(I3
S'|'
NNNI6
I1
I0
tbS'224817'
tRp1688
ag3
(g4
(S'S11'
I0
I1
tRp1689
(I3
S'|'
NNNI11
I1
I0
tbS'r917wP1qsL4'
tRp1690
ag3
(g4
(S'S11'
I0
I1
tRp1691
(I3
S'|'
NNNI11
I1
I0
tbS'N7tS7A0WWpM'
tRp1692
ag3
(g4
(S'S11'
I0
I1
tRp1693
(I3
S'|'
NNNI11
I1
I0
tbS'3oHPsYc8bmw'
tRp1694
ag3
(g4
(S'S11'
I0
I1
tRp1695
(I3
S'|'
NNNI11
I1
I0
tbS'WHUHTmtBJWU'
tRp1696
ag3
(g4
(S'S11'
I0
I1
tRp1697
(I3
S'|'
NNNI11
I1
I0
tbS'0nJrksJ7azM'
tRp1698
ag3
(g4
(S'S11'
I0
I1
tRp1699
(I3
S'|'
NNNI11
I1
I0
tbS'c_FJuhSte8Q'
tRp1700
ag3
(g4
(S'S11'
I0
I1
tRp1701
(I3
S'|'
NNNI11
I1
I0
tbS'plsot5mFAtQ'
tRp1702
ag3
(g4
(S'S11'
I0
I1
tRp1703
(I3
S'|'
NNNI11
I1
I0
tbS'Az3e1Opu0LE'
tRp1704
ag3
(g4
(S'S11'
I0
I1
tRp1705
(I3
S'|'
NNNI11
I1
I0
tbS'2c2fhh_Dsoo'
tRp1706
ag3
(g4
(S'S11'
I0
I1
tRp1707
(I3
S'|'
NNNI11
I1
I0
tbS'GAY5ICoVnA8'
tRp1708
ag3
(g4
(S'S6'
I0
I1
tRp1709
(I3
S'|'
NNNI6
I1
I0
tbS'125708'
tRp1710
ag3
(g4
(S'S11'
I0
I1
tRp1711
(I3
S'|'
NNNI11
I1
I0
tbS'nErOMpqvcRg'
tRp1712
ag3
(g4
(S'S5'
I0
I1
tRp1713
(I3
S'|'
NNNI5
I1
I0
tbS'45186'
tRp1714
ag3
(g4
(S'S5'
I0
I1
tRp1715
(I3
S'|'
NNNI5
I1
I0
tbS'45184'
tRp1716
ag3
(g4
(S'S11'
I0
I1
tRp1717
(I3
S'|'
NNNI11
I1
I0
tbS'REkPZ77s3Vc'
tRp1718
ag3
(g4
(S'S11'
I0
I1
tRp1719
(I3
S'|'
NNNI11
I1
I0
tbS'HQ2LwfRcrVc'
tRp1720
ag3
(g4
(S'S11'
I0
I1
tRp1721
(I3
S'|'
NNNI11
I1
I0
tbS'a5FKWiI90hk'
tRp1722
ag3
(g4
(S'S5'
I0
I1
tRp1723
(I3
S'|'
NNNI5
I1
I0
tbS'93821'
tRp1724
ag3
(g4
(S'S11'
I0
I1
tRp1725
(I3
S'|'
NNNI11
I1
I0
tbS'AmGocfFQfVE'
tRp1726
ag3
(g4
(S'S11'
I0
I1
tRp1727
(I3
S'|'
NNNI11
I1
I0
tbS'khw3YCTFLfs'
tRp1728
ag3
(g4
(S'S11'
I0
I1
tRp1729
(I3
S'|'
NNNI11
I1
I0
tbS'K_5u2Wh_wGk'
tRp1730
ag3
(g4
(S'S11'
I0
I1
tRp1731
(I3
S'|'
NNNI11
I1
I0
tbS'cZVM4svwE90'
tRp1732
ag3
(g4
(S'S6'
I0
I1
tRp1733
(I3
S'|'
NNNI6
I1
I0
tbS'210618'
tRp1734
ag3
(g4
(S'S11'
I0
I1
tRp1735
(I3
S'|'
NNNI11
I1
I0
tbS'JX-mwjSw0dk'
tRp1736
ag3
(g4
(S'S11'
I0
I1
tRp1737
(I3
S'|'
NNNI11
I1
I0
tbS'g99kISQbyuI'
tRp1738
ag3
(g4
(S'S6'
I0
I1
tRp1739
(I3
S'|'
NNNI6
I1
I0
tbS'209354'
tRp1740
ag3
(g4
(S'S11'
I0
I1
tRp1741
(I3
S'|'
NNNI11
I1
I0
tbS'hj1ph17-0jE'
tRp1742
ag3
(g4
(S'S11'
I0
I1
tRp1743
(I3
S'|'
NNNI11
I1
I0
tbS'ep3IasggD3k'
tRp1744
ag3
(g4
(S'S11'
I0
I1
tRp1745
(I3
S'|'
NNNI11
I1
I0
tbS'0rE8jEvQW_I'
tRp1746
ag3
(g4
(S'S11'
I0
I1
tRp1747
(I3
S'|'
NNNI11
I1
I0
tbS'XEZ7e4pf1xE'
tRp1748
ag3
(g4
(S'S11'
I0
I1
tRp1749
(I3
S'|'
NNNI11
I1
I0
tbS'rexJoy4RMdY'
tRp1750
ag3
(g4
(S'S6'
I0
I1
tRp1751
(I3
S'|'
NNNI6
I1
I0
tbS'122842'
tRp1752
ag3
(g4
(S'S11'
I0
I1
tRp1753
(I3
S'|'
NNNI11
I1
I0
tbS'IW7IssCKgmI'
tRp1754
ag3
(g4
(S'S11'
I0
I1
tRp1755
(I3
S'|'
NNNI11
I1
I0
tbS'pttwIaJmfcU'
tRp1756
ag3
(g4
(S'S11'
I0
I1
tRp1757
(I3
S'|'
NNNI11
I1
I0
tbS'tXQQ0joMq1Q'
tRp1758
ag3
(g4
(S'S11'
I0
I1
tRp1759
(I3
S'|'
NNNI11
I1
I0
tbS'Ob8vPQCPDX0'
tRp1760
ag3
(g4
(S'S11'
I0
I1
tRp1761
(I3
S'|'
NNNI11
I1
I0
tbS'sFLTjqVS7AE'
tRp1762
ag3
(g4
(S'S6'
I0
I1
tRp1763
(I3
S'|'
NNNI6
I1
I0
tbS'295793'
tRp1764
ag3
(g4
(S'S11'
I0
I1
tRp1765
(I3
S'|'
NNNI11
I1
I0
tbS'hdLC4Ro977Q'
tRp1766
ag3
(g4
(S'S11'
I0
I1
tRp1767
(I3
S'|'
NNNI11
I1
I0
tbS'Z-26eyME6Co'
tRp1768
ag3
(g4
(S'S6'
I0
I1
tRp1769
(I3
S'|'
NNNI6
I1
I0
tbS'190740'
tRp1770
ag3
(g4
(S'S11'
I0
I1
tRp1771
(I3
S'|'
NNNI11
I1
I0
tbS'WovurMxG2Aw'
tRp1772
ag3
(g4
(S'S11'
I0
I1
tRp1773
(I3
S'|'
NNNI11
I1
I0
tbS'Sglx7douG_4'
tRp1774
ag3
(g4
(S'S11'
I0
I1
tRp1775
(I3
S'|'
NNNI11
I1
I0
tbS'984VkHzXl8w'
tRp1776
ag3
(g4
(S'S11'
I0
I1
tRp1777
(I3
S'|'
NNNI11
I1
I0
tbS'JwzxqrD8tIo'
tRp1778
ag3
(g4
(S'S11'
I0
I1
tRp1779
(I3
S'|'
NNNI11
I1
I0
tbS'XQxnAPleuCE'
tRp1780
ag3
(g4
(S'S11'
I0
I1
tRp1781
(I3
S'|'
NNNI11
I1
I0
tbS'obnOnuzb-Xw'
tRp1782
ag3
(g4
(S'S11'
I0
I1
tRp1783
(I3
S'|'
NNNI11
I1
I0
tbS'wI7DDCRh4Nw'
tRp1784
ag3
(g4
(S'S11'
I0
I1
tRp1785
(I3
S'|'
NNNI11
I1
I0
tbS'mXdvCxLbpuY'
tRp1786
ag3
(g4
(S'S11'
I0
I1
tRp1787
(I3
S'|'
NNNI11
I1
I0
tbS'nZEPf7a8GbI'
tRp1788
ag3
(g4
(S'S11'
I0
I1
tRp1789
(I3
S'|'
NNNI11
I1
I0
tbS'v5AAvrZuR2U'
tRp1790
ag3
(g4
(S'S11'
I0
I1
tRp1791
(I3
S'|'
NNNI11
I1
I0
tbS'pf-78LF4ORE'
tRp1792
ag3
(g4
(S'S11'
I0
I1
tRp1793
(I3
S'|'
NNNI11
I1
I0
tbS'L_XttWZBKss'
tRp1794
ag3
(g4
(S'S11'
I0
I1
tRp1795
(I3
S'|'
NNNI11
I1
I0
tbS'Yi6Qyn4X8is'
tRp1796
ag3
(g4
(S'S11'
I0
I1
tRp1797
(I3
S'|'
NNNI11
I1
I0
tbS'fTNOAssiTYk'
tRp1798
ag3
(g4
(S'S11'
I0
I1
tRp1799
(I3
S'|'
NNNI11
I1
I0
tbS'E0g6nae4Ae4'
tRp1800
ag3
(g4
(S'S11'
I0
I1
tRp1801
(I3
S'|'
NNNI11
I1
I0
tbS'kh6eynD9OIk'
tRp1802
ag3
(g4
(S'S11'
I0
I1
tRp1803
(I3
S'|'
NNNI11
I1
I0
tbS't0Wi5Nb6kbI'
tRp1804
ag3
(g4
(S'S11'
I0
I1
tRp1805
(I3
S'|'
NNNI11
I1
I0
tbS'ngp7s5Wvde0'
tRp1806
ag3
(g4
(S'S11'
I0
I1
tRp1807
(I3
S'|'
NNNI11
I1
I0
tbS'Ry2NJPd4N3s'
tRp1808
ag3
(g4
(S'S5'
I0
I1
tRp1809
(I3
S'|'
NNNI5
I1
I0
tbS'10223'
tRp1810
ag3
(g4
(S'S11'
I0
I1
tRp1811
(I3
S'|'
NNNI11
I1
I0
tbS'v0a8N7Y-Vfc'
tRp1812
ag3
(g4
(S'S11'
I0
I1
tRp1813
(I3
S'|'
NNNI11
I1
I0
tbS'1JQ9UCBEmCU'
tRp1814
ag3
(g4
(S'S11'
I0
I1
tRp1815
(I3
S'|'
NNNI11
I1
I0
tbS'vop7tN_K64I'
tRp1816
ag3
(g4
(S'S5'
I0
I1
tRp1817
(I3
S'|'
NNNI5
I1
I0
tbS'15837'
tRp1818
ag3
(g4
(S'S11'
I0
I1
tRp1819
(I3
S'|'
NNNI11
I1
I0
tbS'VN1IPN1TL3Q'
tRp1820
ag3
(g4
(S'S11'
I0
I1
tRp1821
(I3
S'|'
NNNI11
I1
I0
tbS'wCbQxI_-GKU'
tRp1822
ag3
(g4
(S'S11'
I0
I1
tRp1823
(I3
S'|'
NNNI11
I1
I0
tbS'gPWyANEm0eE'
tRp1824
ag3
(g4
(S'S11'
I0
I1
tRp1825
(I3
S'|'
NNNI11
I1
I0
tbS'FfavRdRKsAQ'
tRp1826
ag3
(g4
(S'S5'
I0
I1
tRp1827
(I3
S'|'
NNNI5
I1
I0
tbS'40260'
tRp1828
ag3
(g4
(S'S11'
I0
I1
tRp1829
(I3
S'|'
NNNI11
I1
I0
tbS'yBGuxyO-ElM'
tRp1830
ag3
(g4
(S'S11'
I0
I1
tRp1831
(I3
S'|'
NNNI11
I1
I0
tbS'O8IJh_L0EfM'
tRp1832
ag3
(g4
(S'S6'
I0
I1
tRp1833
(I3
S'|'
NNNI6
I1
I0
tbS'180923'
tRp1834
ag3
(g4
(S'S11'
I0
I1
tRp1835
(I3
S'|'
NNNI11
I1
I0
tbS'zcG0ms7CdBE'
tRp1836
ag3
(g4
(S'S11'
I0
I1
tRp1837
(I3
S'|'
NNNI11
I1
I0
tbS'Cj7R36s4dbM'
tRp1838
ag3
(g4
(S'S11'
I0
I1
tRp1839
(I3
S'|'
NNNI11
I1
I0
tbS'zOHZDq2BvGo'
tRp1840
ag3
(g4
(S'S11'
I0
I1
tRp1841
(I3
S'|'
NNNI11
I1
I0
tbS'dyZdiWNflko'
tRp1842
ag3
(g4
(S'S6'
I0
I1
tRp1843
(I3
S'|'
NNNI6
I1
I0
tbS'298774'
tRp1844
ag3
(g4
(S'S5'
I0
I1
tRp1845
(I3
S'|'
NNNI5
I1
I0
tbS'38019'
tRp1846
ag3
(g4
(S'S11'
I0
I1
tRp1847
(I3
S'|'
NNNI11
I1
I0
tbS'4wuug3-5cWo'
tRp1848
ag3
(g4
(S'S11'
I0
I1
tRp1849
(I3
S'|'
NNNI11
I1
I0
tbS'VDjnKdFxuBE'
tRp1850
ag3
(g4
(S'S11'
I0
I1
tRp1851
(I3
S'|'
NNNI11
I1
I0
tbS'uYzZB4ccG1Q'
tRp1852
ag3
(g4
(S'S11'
I0
I1
tRp1853
(I3
S'|'
NNNI11
I1
I0
tbS'WxYb2x_irTM'
tRp1854
ag3
(g4
(S'S11'
I0
I1
tRp1855
(I3
S'|'
NNNI11
I1
I0
tbS'XXvSLz8QmGk'
tRp1856
ag3
(g4
(S'S11'
I0
I1
tRp1857
(I3
S'|'
NNNI11
I1
I0
tbS'EEUGfVTyTQM'
tRp1858
ag3
(g4
(S'S5'
I0
I1
tRp1859
(I3
S'|'
NNNI5
I1
I0
tbS'92221'
tRp1860
ag3
(g4
(S'S11'
I0
I1
tRp1861
(I3
S'|'
NNNI11
I1
I0
tbS'emtvrtk-jsU'
tRp1862
ag3
(g4
(S'S11'
I0
I1
tRp1863
(I3
S'|'
NNNI11
I1
I0
tbS'xPhlDO-2Foc'
tRp1864
ag3
(g4
(S'S11'
I0
I1
tRp1865
(I3
S'|'
NNNI11
I1
I0
tbS'c805Td8A_Ek'
tRp1866
ag3
(g4
(S'S11'
I0
I1
tRp1867
(I3
S'|'
NNNI11
I1
I0
tbS'N0Y7x_fJ0Nw'
tRp1868
ag3
(g4
(S'S11'
I0
I1
tRp1869
(I3
S'|'
NNNI11
I1
I0
tbS'vCWpKubBbcw'
tRp1870
ag3
(g4
(S'S11'
I0
I1
tRp1871
(I3
S'|'
NNNI11
I1
I0
tbS'rWjPSlzUc-8'
tRp1872
ag3
(g4
(S'S11'
I0
I1
tRp1873
(I3
S'|'
NNNI11
I1
I0
tbS'TJelZLbfT2A'
tRp1874
ag3
(g4
(S'S11'
I0
I1
tRp1875
(I3
S'|'
NNNI11
I1
I0
tbS'krHZuqfXrPU'
tRp1876
ag3
(g4
(S'S11'
I0
I1
tRp1877
(I3
S'|'
NNNI11
I1
I0
tbS'gRAmIaSlm80'
tRp1878
ag3
(g4
(S'S11'
I0
I1
tRp1879
(I3
S'|'
NNNI11
I1
I0
tbS'QMEgjkpyVzQ'
tRp1880
ag3
(g4
(S'S6'
I0
I1
tRp1881
(I3
S'|'
NNNI6
I1
I0
tbS'110754'
tRp1882
ag3
(g4
(S'S11'
I0
I1
tRp1883
(I3
S'|'
NNNI11
I1
I0
tbS'uN0d3ZOkDp8'
tRp1884
ag3
(g4
(S'S11'
I0
I1
tRp1885
(I3
S'|'
NNNI11
I1
I0
tbS'jakiZQd4boM'
tRp1886
ag3
(g4
(S'S11'
I0
I1
tRp1887
(I3
S'|'
NNNI11
I1
I0
tbS'cyu1HhakSaQ'
tRp1888
ag3
(g4
(S'S11'
I0
I1
tRp1889
(I3
S'|'
NNNI11
I1
I0
tbS'VVZLA2neYyw'
tRp1890
ag3
(g4
(S'S11'
I0
I1
tRp1891
(I3
S'|'
NNNI11
I1
I0
tbS'MPRqaQqrd9Y'
tRp1892
ag3
(g4
(S'S11'
I0
I1
tRp1893
(I3
S'|'
NNNI11
I1
I0
tbS'SMzV26l6iA0'
tRp1894
ag3
(g4
(S'S6'
I0
I1
tRp1895
(I3
S'|'
NNNI6
I1
I0
tbS'106514'
tRp1896
ag3
(g4
(S'S6'
I0
I1
tRp1897
(I3
S'|'
NNNI6
I1
I0
tbS'224772'
tRp1898
ag3
(g4
(S'S11'
I0
I1
tRp1899
(I3
S'|'
NNNI11
I1
I0
tbS'1tQOvm5eQOA'
tRp1900
ag3
(g4
(S'S11'
I0
I1
tRp1901
(I3
S'|'
NNNI11
I1
I0
tbS'X2leyjuolDM'
tRp1902
ag3
(g4
(S'S11'
I0
I1
tRp1903
(I3
S'|'
NNNI11
I1
I0
tbS'S_mxvk4LEh0'
tRp1904
ag3
(g4
(S'S6'
I0
I1
tRp1905
(I3
S'|'
NNNI6
I1
I0
tbS'239572'
tRp1906
ag3
(g4
(S'S11'
I0
I1
tRp1907
(I3
S'|'
NNNI11
I1
I0
tbS'0EAAfLCQabY'
tRp1908
ag3
(g4
(S'S11'
I0
I1
tRp1909
(I3
S'|'
NNNI11
I1
I0
tbS'mRPIse3OO74'
tRp1910
ag3
(g4
(S'S11'
I0
I1
tRp1911
(I3
S'|'
NNNI11
I1
I0
tbS'HqtvFTa29L8'
tRp1912
ag3
(g4
(S'S6'
I0
I1
tRp1913
(I3
S'|'
NNNI6
I1
I0
tbS'241164'
tRp1914
ag3
(g4
(S'S11'
I0
I1
tRp1915
(I3
S'|'
NNNI11
I1
I0
tbS'6YNAmRjpxlA'
tRp1916
ag3
(g4
(S'S11'
I0
I1
tRp1917
(I3
S'|'
NNNI11
I1
I0
tbS'VhKJm_jiciU'
tRp1918
ag3
(g4
(S'S11'
I0
I1
tRp1919
(I3
S'|'
NNNI11
I1
I0
tbS'ixZAEncExWI'
tRp1920
ag3
(g4
(S'S6'
I0
I1
tRp1921
(I3
S'|'
NNNI6
I1
I0
tbS'206507'
tRp1922
ag3
(g4
(S'S11'
I0
I1
tRp1923
(I3
S'|'
NNNI11
I1
I0
tbS'LUKIYWa0UGA'
tRp1924
ag3
(g4
(S'S11'
I0
I1
tRp1925
(I3
S'|'
NNNI11
I1
I0
tbS'VAFdgtqZz4g'
tRp1926
ag3
(g4
(S'S11'
I0
I1
tRp1927
(I3
S'|'
NNNI11
I1
I0
tbS'6TDXQtGUNEs'
tRp1928
ag3
(g4
(S'S11'
I0
I1
tRp1929
(I3
S'|'
NNNI11
I1
I0
tbS'TUzD45ghy4k'
tRp1930
ag3
(g4
(S'S11'
I0
I1
tRp1931
(I3
S'|'
NNNI11
I1
I0
tbS'UXvMaHD9kmA'
tRp1932
ag3
(g4
(S'S11'
I0
I1
tRp1933
(I3
S'|'
NNNI11
I1
I0
tbS'nDXKvarLEOM'
tRp1934
ag3
(g4
(S'S11'
I0
I1
tRp1935
(I3
S'|'
NNNI11
I1
I0
tbS'WAXJRnJXmOA'
tRp1936
ag3
(g4
(S'S11'
I0
I1
tRp1937
(I3
S'|'
NNNI11
I1
I0
tbS'a8WV5KEMKSw'
tRp1938
ag3
(g4
(S'S11'
I0
I1
tRp1939
(I3
S'|'
NNNI11
I1
I0
tbS'ItnyexqXR_U'
tRp1940
ag3
(g4
(S'S6'
I0
I1
tRp1941
(I3
S'|'
NNNI6
I1
I0
tbS'136215'
tRp1942
ag3
(g4
(S'S6'
I0
I1
tRp1943
(I3
S'|'
NNNI6
I1
I0
tbS'136211'
tRp1944
ag3
(g4
(S'S11'
I0
I1
tRp1945
(I3
S'|'
NNNI11
I1
I0
tbS'JMzilFvwNXE'
tRp1946
ag3
(g4
(S'S11'
I0
I1
tRp1947
(I3
S'|'
NNNI11
I1
I0
tbS'bEXCrGIOoWU'
tRp1948
ag3
(g4
(S'S11'
I0
I1
tRp1949
(I3
S'|'
NNNI11
I1
I0
tbS'xwNQ7QuXaps'
tRp1950
ag3
(g4
(S'S5'
I0
I1
tRp1951
(I3
S'|'
NNNI5
I1
I0
tbS'88888'
tRp1952
ag3
(g4
(S'S11'
I0
I1
tRp1953
(I3
S'|'
NNNI11
I1
I0
tbS'SSNrLu-eZiM'
tRp1954
ag3
(g4
(S'S11'
I0
I1
tRp1955
(I3
S'|'
NNNI11
I1
I0
tbS'83_N43pvgHI'
tRp1956
ag3
(g4
(S'S11'
I0
I1
tRp1957
(I3
S'|'
NNNI11
I1
I0
tbS'PUIsiLk8etk'
tRp1958
ag3
(g4
(S'S11'
I0
I1
tRp1959
(I3
S'|'
NNNI11
I1
I0
tbS'KSyX-lejDcc'
tRp1960
ag3
(g4
(S'S11'
I0
I1
tRp1961
(I3
S'|'
NNNI11
I1
I0
tbS'ou6S6fbfBWU'
tRp1962
ag3
(g4
(S'S11'
I0
I1
tRp1963
(I3
S'|'
NNNI11
I1
I0
tbS'wQkNqbrAlB4'
tRp1964
ag3
(g4
(S'S11'
I0
I1
tRp1965
(I3
S'|'
NNNI11
I1
I0
tbS'bcns0Gu66D8'
tRp1966
ag3
(g4
(S'S11'
I0
I1
tRp1967
(I3
S'|'
NNNI11
I1
I0
tbS'NSihgq4R8Z0'
tRp1968
ag3
(g4
(S'S11'
I0
I1
tRp1969
(I3
S'|'
NNNI11
I1
I0
tbS'jNdvceZ4etc'
tRp1970
ag3
(g4
(S'S11'
I0
I1
tRp1971
(I3
S'|'
NNNI11
I1
I0
tbS'YgyqX4aZ4tE'
tRp1972
ag3
(g4
(S'S11'
I0
I1
tRp1973
(I3
S'|'
NNNI11
I1
I0
tbS'AggyS1coOb8'
tRp1974
ag3
(g4
(S'S11'
I0
I1
tRp1975
(I3
S'|'
NNNI11
I1
I0
tbS'3HRnhUin-5g'
tRp1976
ag3
(g4
(S'S11'
I0
I1
tRp1977
(I3
S'|'
NNNI11
I1
I0
tbS'Olx-sTx7HTk'
tRp1978
ag3
(g4
(S'S11'
I0
I1
tRp1979
(I3
S'|'
NNNI11
I1
I0
tbS'lEsFI5YJGDo'
tRp1980
ag3
(g4
(S'S11'
I0
I1
tRp1981
(I3
S'|'
NNNI11
I1
I0
tbS'KD0w4BrNXQg'
tRp1982
ag3
(g4
(S'S11'
I0
I1
tRp1983
(I3
S'|'
NNNI11
I1
I0
tbS'gjEYmdWrBLM'
tRp1984
ag3
(g4
(S'S11'
I0
I1
tRp1985
(I3
S'|'
NNNI11
I1
I0
tbS'I5cS_TlV5B8'
tRp1986
ag3
(g4
(S'S5'
I0
I1
tRp1987
(I3
S'|'
NNNI5
I1
I0
tbS'88245'
tRp1988
ag3
(g4
(S'S11'
I0
I1
tRp1989
(I3
S'|'
NNNI11
I1
I0
tbS'BnWvk0YRgE4'
tRp1990
ag3
(g4
(S'S11'
I0
I1
tRp1991
(I3
S'|'
NNNI11
I1
I0
tbS'-aqamKhZ1Ec'
tRp1992
ag3
(g4
(S'S11'
I0
I1
tRp1993
(I3
S'|'
NNNI11
I1
I0
tbS'BseI8-TYWm8'
tRp1994
ag3
(g4
(S'S11'
I0
I1
tRp1995
(I3
S'|'
NNNI11
I1
I0
tbS'ZfQYEa2fHGo'
tRp1996
ag3
(g4
(S'S11'
I0
I1
tRp1997
(I3
S'|'
NNNI11
I1
I0
tbS'oNCvb0F-c88'
tRp1998
ag3
(g4
(S'S11'
I0
I1
tRp1999
(I3
S'|'
NNNI11
I1
I0
tbS'o7vcTMAX9fQ'
tRp2000
ag3
(g4
(S'S11'
I0
I1
tRp2001
(I3
S'|'
NNNI11
I1
I0
tbS'ieWQdiQAh4M'
tRp2002
ag3
(g4
(S'S11'
I0
I1
tRp2003
(I3
S'|'
NNNI11
I1
I0
tbS'ZbVa-a2tNFM'
tRp2004
ag3
(g4
(S'S11'
I0
I1
tRp2005
(I3
S'|'
NNNI11
I1
I0
tbS'SLi2gT5H6m8'
tRp2006
ag3
(g4
(S'S11'
I0
I1
tRp2007
(I3
S'|'
NNNI11
I1
I0
tbS'd7Dz34-cZ74'
tRp2008
ag3
(g4
(S'S11'
I0
I1
tRp2009
(I3
S'|'
NNNI11
I1
I0
tbS'3kNPvhdF1NA'
tRp2010
ag3
(g4
(S'S11'
I0
I1
tRp2011
(I3
S'|'
NNNI11
I1
I0
tbS'mHIvH6Nnrls'
tRp2012
ag3
(g4
(S'S11'
I0
I1
tRp2013
(I3
S'|'
NNNI11
I1
I0
tbS'7wiaDbpiAQ8'
tRp2014
ag3
(g4
(S'S11'
I0
I1
tRp2015
(I3
S'|'
NNNI11
I1
I0
tbS'H-AJ-grXvgQ'
tRp2016
ag3
(g4
(S'S6'
I0
I1
tRp2017
(I3
S'|'
NNNI6
I1
I0
tbS'277991'
tRp2018
ag3
(g4
(S'S11'
I0
I1
tRp2019
(I3
S'|'
NNNI11
I1
I0
tbS'a4vRa-_nuJw'
tRp2020
ag3
(g4
(S'S11'
I0
I1
tRp2021
(I3
S'|'
NNNI11
I1
I0
tbS'F8KE2ZhoUe4'
tRp2022
ag3
(g4
(S'S11'
I0
I1
tRp2023
(I3
S'|'
NNNI11
I1
I0
tbS'rCQYq4T8SEI'
tRp2024
ag3
(g4
(S'S11'
I0
I1
tRp2025
(I3
S'|'
NNNI11
I1
I0
tbS'1A-aRhYx-GQ'
tRp2026
ag3
(g4
(S'S11'
I0
I1
tRp2027
(I3
S'|'
NNNI11
I1
I0
tbS'CuF-UOcAFG8'
tRp2028
ag3
(g4
(S'S11'
I0
I1
tRp2029
(I3
S'|'
NNNI11
I1
I0
tbS'mHEtr7PHxoA'
tRp2030
ag3
(g4
(S'S11'
I0
I1
tRp2031
(I3
S'|'
NNNI11
I1
I0
tbS'oGnKsroR0R0'
tRp2032
ag3
(g4
(S'S6'
I0
I1
tRp2033
(I3
S'|'
NNNI6
I1
I0
tbS'125845'
tRp2034
ag3
(g4
(S'S11'
I0
I1
tRp2035
(I3
S'|'
NNNI11
I1
I0
tbS'4GYfmpEEtl4'
tRp2036
ag3
(g4
(S'S11'
I0
I1
tRp2037
(I3
S'|'
NNNI11
I1
I0
tbS'jhb6SV2dQzg'
tRp2038
ag3
(g4
(S'S11'
I0
I1
tRp2039
(I3
S'|'
NNNI11
I1
I0
tbS'ZjsQqd6KZIg'
tRp2040
ag3
(g4
(S'S11'
I0
I1
tRp2041
(I3
S'|'
NNNI11
I1
I0
tbS'mSWwz7dXUP8'
tRp2042
ag3
(g4
(S'S5'
I0
I1
tRp2043
(I3
S'|'
NNNI5
I1
I0
tbS'93839'
tRp2044
ag3
(g4
(S'S11'
I0
I1
tRp2045
(I3
S'|'
NNNI11
I1
I0
tbS'iFj9wJaJSPE'
tRp2046
ag3
(g4
(S'S11'
I0
I1
tRp2047
(I3
S'|'
NNNI11
I1
I0
tbS'hOp6I4jGvu4'
tRp2048
ag3
(g4
(S'S11'
I0
I1
tRp2049
(I3
S'|'
NNNI11
I1
I0
tbS'_bIJOxiIJFk'
tRp2050
ag3
(g4
(S'S11'
I0
I1
tRp2051
(I3
S'|'
NNNI11
I1
I0
tbS'lWvaIexY2WU'
tRp2052
ag3
(g4
(S'S6'
I0
I1
tRp2053
(I3
S'|'
NNNI6
I1
I0
tbS'327283'
tRp2054
ag3
(g4
(S'S11'
I0
I1
tRp2055
(I3
S'|'
NNNI11
I1
I0
tbS'kCQqLNiO0mk'
tRp2056
ag3
(g4
(S'S11'
I0
I1
tRp2057
(I3
S'|'
NNNI11
I1
I0
tbS'KPeos6f4HuQ'
tRp2058
ag3
(g4
(S'S11'
I0
I1
tRp2059
(I3
S'|'
NNNI11
I1
I0
tbS'm8tzdtrgFUA'
tRp2060
ag3
(g4
(S'S11'
I0
I1
tRp2061
(I3
S'|'
NNNI11
I1
I0
tbS'2HP4KedfmSc'
tRp2062
ag3
(g4
(S'S11'
I0
I1
tRp2063
(I3
S'|'
NNNI11
I1
I0
tbS'8VP1qxX9mh4'
tRp2064
ag3
(g4
(S'S6'
I0
I1
tRp2065
(I3
S'|'
NNNI6
I1
I0
tbS'113265'
tRp2066
ag3
(g4
(S'S11'
I0
I1
tRp2067
(I3
S'|'
NNNI11
I1
I0
tbS'XAazxiP6tP0'
tRp2068
ag3
(g4
(S'S11'
I0
I1
tRp2069
(I3
S'|'
NNNI11
I1
I0
tbS'sRex0-9yFFc'
tRp2070
ag3
(g4
(S'S11'
I0
I1
tRp2071
(I3
S'|'
NNNI11
I1
I0
tbS'o2bNnLOEEC0'
tRp2072
ag3
(g4
(S'S11'
I0
I1
tRp2073
(I3
S'|'
NNNI11
I1
I0
tbS'YLA7h1RTa9w'
tRp2074
ag3
(g4
(S'S11'
I0
I1
tRp2075
(I3
S'|'
NNNI11
I1
I0
tbS'QYp0lGhyL6A'
tRp2076
ag3
(g4
(S'S11'
I0
I1
tRp2077
(I3
S'|'
NNNI11
I1
I0
tbS'rwe-hBNpzH8'
tRp2078
ag3
(g4
(S'S11'
I0
I1
tRp2079
(I3
S'|'
NNNI11
I1
I0
tbS'QWaUvAL-yiA'
tRp2080
ag3
(g4
(S'S11'
I0
I1
tRp2081
(I3
S'|'
NNNI11
I1
I0
tbS'jbJF3aphcP0'
tRp2082
ag3
(g4
(S'S11'
I0
I1
tRp2083
(I3
S'|'
NNNI11
I1
I0
tbS'f5k5cF80aUE'
tRp2084
ag3
(g4
(S'S11'
I0
I1
tRp2085
(I3
S'|'
NNNI11
I1
I0
tbS'663uRzFOfrg'
tRp2086
ag3
(g4
(S'S11'
I0
I1
tRp2087
(I3
S'|'
NNNI11
I1
I0
tbS'OdKp0hYomgs'
tRp2088
ag3
(g4
(S'S11'
I0
I1
tRp2089
(I3
S'|'
NNNI11
I1
I0
tbS'AKofHsmxa1I'
tRp2090
ag3
(g4
(S'S11'
I0
I1
tRp2091
(I3
S'|'
NNNI11
I1
I0
tbS'uyOrVTq8Tjk'
tRp2092
ag3
(g4
(S'S11'
I0
I1
tRp2093
(I3
S'|'
NNNI11
I1
I0
tbS'Zs8x712Y-CM'
tRp2094
ag3
(g4
(S'S5'
I0
I1
tRp2095
(I3
S'|'
NNNI5
I1
I0
tbS'80866'
tRp2096
ag3
(g4
(S'S11'
I0
I1
tRp2097
(I3
S'|'
NNNI11
I1
I0
tbS'94ULum9MYX0'
tRp2098
ag3
(g4
(S'S11'
I0
I1
tRp2099
(I3
S'|'
NNNI11
I1
I0
tbS'_tBaGXNwlp0'
tRp2100
ag3
(g4
(S'S11'
I0
I1
tRp2101
(I3
S'|'
NNNI11
I1
I0
tbS'AuPCZlKBzq8'
tRp2102
ag3
(g4
(S'S11'
I0
I1
tRp2103
(I3
S'|'
NNNI11
I1
I0
tbS'qYJtbgLqizk'
tRp2104
ag3
(g4
(S'S11'
I0
I1
tRp2105
(I3
S'|'
NNNI11
I1
I0
tbS'm0-DH0k115I'
tRp2106
ag3
(g4
(S'S11'
I0
I1
tRp2107
(I3
S'|'
NNNI11
I1
I0
tbS'yyToAEoUuek'
tRp2108
ag3
(g4
(S'S11'
I0
I1
tRp2109
(I3
S'|'
NNNI11
I1
I0
tbS'veHYwR7ge6Y'
tRp2110
ag3
(g4
(S'S11'
I0
I1
tRp2111
(I3
S'|'
NNNI11
I1
I0
tbS'nsLACXjD4KU'
tRp2112
ag3
(g4
(S'S11'
I0
I1
tRp2113
(I3
S'|'
NNNI11
I1
I0
tbS'ypZhKsR-9iI'
tRp2114
ag3
(g4
(S'S11'
I0
I1
tRp2115
(I3
S'|'
NNNI11
I1
I0
tbS'sqADHmnM164'
tRp2116
ag3
(g4
(S'S11'
I0
I1
tRp2117
(I3
S'|'
NNNI11
I1
I0
tbS'wRKVNiABc0w'
tRp2118
ag3
(g4
(S'S11'
I0
I1
tRp2119
(I3
S'|'
NNNI11
I1
I0
tbS'tgrxA3CiBv0'
tRp2120
ag3
(g4
(S'S11'
I0
I1
tRp2121
(I3
S'|'
NNNI11
I1
I0
tbS'RLHZ6xtIWSM'
tRp2122
ag3
(g4
(S'S11'
I0
I1
tRp2123
(I3
S'|'
NNNI11
I1
I0
tbS'4qoB5a6dR3w'
tRp2124
ag3
(g4
(S'S11'
I0
I1
tRp2125
(I3
S'|'
NNNI11
I1
I0
tbS'9pdyTplXwM4'
tRp2126
ag3
(g4
(S'S11'
I0
I1
tRp2127
(I3
S'|'
NNNI11
I1
I0
tbS'cMUS4nhcKCQ'
tRp2128
ag3
(g4
(S'S11'
I0
I1
tRp2129
(I3
S'|'
NNNI11
I1
I0
tbS'kSooCdVTI6E'
tRp2130
ag3
(g4
(S'S5'
I0
I1
tRp2131
(I3
S'|'
NNNI5
I1
I0
tbS'78577'
tRp2132
ag3
(g4
(S'S11'
I0
I1
tRp2133
(I3
S'|'
NNNI11
I1
I0
tbS'65kkuNV921k'
tRp2134
ag3
(g4
(S'S11'
I0
I1
tRp2135
(I3
S'|'
NNNI11
I1
I0
tbS'po5jCjnxW1w'
tRp2136
ag3
(g4
(S'S11'
I0
I1
tRp2137
(I3
S'|'
NNNI11
I1
I0
tbS'nM5S3xxNOlQ'
tRp2138
ag3
(g4
(S'S11'
I0
I1
tRp2139
(I3
S'|'
NNNI11
I1
I0
tbS'31tcuDMQ_H8'
tRp2140
ag3
(g4
(S'S5'
I0
I1
tRp2141
(I3
S'|'
NNNI5
I1
I0
tbS'47472'
tRp2142
ag3
(g4
(S'S11'
I0
I1
tRp2143
(I3
S'|'
NNNI11
I1
I0
tbS'ZQuGizjoCTY'
tRp2144
ag3
(g4
(S'S11'
I0
I1
tRp2145
(I3
S'|'
NNNI11
I1
I0
tbS'xXIq7YPkdUQ'
tRp2146
ag3
(g4
(S'S11'
I0
I1
tRp2147
(I3
S'|'
NNNI11
I1
I0
tbS'K9faaGel838'
tRp2148
ag3
(g4
(S'S11'
I0
I1
tRp2149
(I3
S'|'
NNNI11
I1
I0
tbS'sFxUNO2HOKY'
tRp2150
ag3
(g4
(S'S11'
I0
I1
tRp2151
(I3
S'|'
NNNI11
I1
I0
tbS'yt9GpittX4U'
tRp2152
ag3
(g4
(S'S11'
I0
I1
tRp2153
(I3
S'|'
NNNI11
I1
I0
tbS'kddCewAsxfA'
tRp2154
ag3
(g4
(S'S11'
I0
I1
tRp2155
(I3
S'|'
NNNI11
I1
I0
tbS'YjNYBBs1AZw'
tRp2156
ag3
(g4
(S'S6'
I0
I1
tRp2157
(I3
S'|'
NNNI6
I1
I0
tbS'108793'
tRp2158
ag3
(g4
(S'S11'
I0
I1
tRp2159
(I3
S'|'
NNNI11
I1
I0
tbS'UgTM9y2rD38'
tRp2160
ag3
(g4
(S'S11'
I0
I1
tRp2161
(I3
S'|'
NNNI11
I1
I0
tbS'TO5HjoK8Iu8'
tRp2162
ag3
(g4
(S'S11'
I0
I1
tRp2163
(I3
S'|'
NNNI11
I1
I0
tbS'pkH2TfFN-6s'
tRp2164
ag3
(g4
(S'S11'
I0
I1
tRp2165
(I3
S'|'
NNNI11
I1
I0
tbS'-3g5yACwYnA'
tRp2166
ag3
(g4
(S'S6'
I0
I1
tRp2167
(I3
S'|'
NNNI6
I1
I0
tbS'264446'
tRp2168
ag3
(g4
(S'S6'
I0
I1
tRp2169
(I3
S'|'
NNNI6
I1
I0
tbS'238039'
tRp2170
ag3
(g4
(S'S11'
I0
I1
tRp2171
(I3
S'|'
NNNI11
I1
I0
tbS'cEXJ2zFbC9I'
tRp2172
ag3
(g4
(S'S11'
I0
I1
tRp2173
(I3
S'|'
NNNI11
I1
I0
tbS'Kmtib-wZ0jM'
tRp2174
ag3
(g4
(S'S11'
I0
I1
tRp2175
(I3
S'|'
NNNI11
I1
I0
tbS'FmE9BtTmxnE'
tRp2176
ag3
(g4
(S'S11'
I0
I1
tRp2177
(I3
S'|'
NNNI11
I1
I0
tbS'CVx494kExvc'
tRp2178
ag3
(g4
(S'S11'
I0
I1
tRp2179
(I3
S'|'
NNNI11
I1
I0
tbS'fSOVk2cS-sY'
tRp2180
ag3
(g4
(S'S11'
I0
I1
tRp2181
(I3
S'|'
NNNI11
I1
I0
tbS'3n44IP3tCVE'
tRp2182
ag3
(g4
(S'S11'
I0
I1
tRp2183
(I3
S'|'
NNNI11
I1
I0
tbS'1k7br8xXMSU'
tRp2184
ag3
(g4
(S'S11'
I0
I1
tRp2185
(I3
S'|'
NNNI11
I1
I0
tbS'Q5fZk_jPjBI'
tRp2186
ag3
(g4
(S'S11'
I0
I1
tRp2187
(I3
S'|'
NNNI11
I1
I0
tbS'GJyzeK-Cn-0'
tRp2188
ag3
(g4
(S'S11'
I0
I1
tRp2189
(I3
S'|'
NNNI11
I1
I0
tbS'mMeGgB9-hSE'
tRp2190
ag3
(g4
(S'S6'
I0
I1
tRp2191
(I3
S'|'
NNNI6
I1
I0
tbS'206376'
tRp2192
ag3
(g4
(S'S11'
I0
I1
tRp2193
(I3
S'|'
NNNI11
I1
I0
tbS'27ubp7CLLKQ'
tRp2194
ag3
(g4
(S'S11'
I0
I1
tRp2195
(I3
S'|'
NNNI11
I1
I0
tbS'qFppeQvdfxI'
tRp2196
ag3
(g4
(S'S11'
I0
I1
tRp2197
(I3
S'|'
NNNI11
I1
I0
tbS'4Q7OkrJLzAc'
tRp2198
ag3
(g4
(S'S11'
I0
I1
tRp2199
(I3
S'|'
NNNI11
I1
I0
tbS'YWxvIFmYnNU'
tRp2200
ag3
(g4
(S'S11'
I0
I1
tRp2201
(I3
S'|'
NNNI11
I1
I0
tbS'QEG_hkJsaYc'
tRp2202
ag3
(g4
(S'S11'
I0
I1
tRp2203
(I3
S'|'
NNNI11
I1
I0
tbS'BMhG11CXgww'
tRp2204
ag3
(g4
(S'S11'
I0
I1
tRp2205
(I3
S'|'
NNNI11
I1
I0
tbS'7eJqqvvziQo'
tRp2206
ag3
(g4
(S'S11'
I0
I1
tRp2207
(I3
S'|'
NNNI11
I1
I0
tbS'i714Xt6eb1Y'
tRp2208
ag3
(g4
(S'S11'
I0
I1
tRp2209
(I3
S'|'
NNNI11
I1
I0
tbS'bzPFUVGPS3c'
tRp2210
ag3
(g4
(S'S11'
I0
I1
tRp2211
(I3
S'|'
NNNI11
I1
I0
tbS'2PgJok07td4'
tRp2212
ag3
(g4
(S'S11'
I0
I1
tRp2213
(I3
S'|'
NNNI11
I1
I0
tbS'3ocpWAmSNUE'
tRp2214
ag3
(g4
(S'S11'
I0
I1
tRp2215
(I3
S'|'
NNNI11
I1
I0
tbS'QLEOYF7Mju0'
tRp2216
ag3
(g4
(S'S11'
I0
I1
tRp2217
(I3
S'|'
NNNI11
I1
I0
tbS'XzhRYIeczg4'
tRp2218
ag3
(g4
(S'S11'
I0
I1
tRp2219
(I3
S'|'
NNNI11
I1
I0
tbS'_BXmhCPTQmA'
tRp2220
ag3
(g4
(S'S11'
I0
I1
tRp2221
(I3
S'|'
NNNI11
I1
I0
tbS'78Ncka6CY70'
tRp2222
ag3
(g4
(S'S11'
I0
I1
tRp2223
(I3
S'|'
NNNI11
I1
I0
tbS'9bAgEmihzLs'
tRp2224
ag3
(g4
(S'S11'
I0
I1
tRp2225
(I3
S'|'
NNNI11
I1
I0
tbS'xgAwddSkrOo'
tRp2226
ag3
(g4
(S'S11'
I0
I1
tRp2227
(I3
S'|'
NNNI11
I1
I0
tbS'ce1ObTPlI38'
tRp2228
ag3
(g4
(S'S11'
I0
I1
tRp2229
(I3
S'|'
NNNI11
I1
I0
tbS'TWf0XFpXwfs'
tRp2230
ag3
(g4
(S'S11'
I0
I1
tRp2231
(I3
S'|'
NNNI11
I1
I0
tbS'Vx8npmcFxak'
tRp2232
ag3
(g4
(S'S11'
I0
I1
tRp2233
(I3
S'|'
NNNI11
I1
I0
tbS'MCRCXXPqFOI'
tRp2234
ag3
(g4
(S'S11'
I0
I1
tRp2235
(I3
S'|'
NNNI11
I1
I0
tbS'8XODJwsvBa0'
tRp2236
ag3
(g4
(S'S11'
I0
I1
tRp2237
(I3
S'|'
NNNI11
I1
I0
tbS'8u5aet7s9_w'
tRp2238
ag3
(g4
(S'S11'
I0
I1
tRp2239
(I3
S'|'
NNNI11
I1
I0
tbS'3FpmKxZgihw'
tRp2240
ag3
(g4
(S'S6'
I0
I1
tRp2241
(I3
S'|'
NNNI6
I1
I0
tbS'202990'
tRp2242
ag3
(g4
(S'S11'
I0
I1
tRp2243
(I3
S'|'
NNNI11
I1
I0
tbS'Rw2pzFGosmw'
tRp2244
ag3
(g4
(S'S5'
I0
I1
tRp2245
(I3
S'|'
NNNI5
I1
I0
tbS'43371'
tRp2246
ag3
(g4
(S'S11'
I0
I1
tRp2247
(I3
S'|'
NNNI11
I1
I0
tbS'ZzL2sHtTWRc'
tRp2248
ag3
(g4
(S'S11'
I0
I1
tRp2249
(I3
S'|'
NNNI11
I1
I0
tbS'VbSsGRXIwjc'
tRp2250
ag3
(g4
(S'S11'
I0
I1
tRp2251
(I3
S'|'
NNNI11
I1
I0
tbS'2HmBM3GGTlg'
tRp2252
ag3
(g4
(S'S11'
I0
I1
tRp2253
(I3
S'|'
NNNI11
I1
I0
tbS'_iRAn6feOmw'
tRp2254
ag3
(g4
(S'S11'
I0
I1
tRp2255
(I3
S'|'
NNNI11
I1
I0
tbS'eOU_40p9RpA'
tRp2256
ag3
(g4
(S'S11'
I0
I1
tRp2257
(I3
S'|'
NNNI11
I1
I0
tbS'vttEPA6Xffk'
tRp2258
ag3
(g4
(S'S11'
I0
I1
tRp2259
(I3
S'|'
NNNI11
I1
I0
tbS'cKxNJY7sA8s'
tRp2260
ag3
(g4
(S'S6'
I0
I1
tRp2261
(I3
S'|'
NNNI6
I1
I0
tbS'193291'
tRp2262
ag3
(g4
(S'S11'
I0
I1
tRp2263
(I3
S'|'
NNNI11
I1
I0
tbS'MBDZbACupsc'
tRp2264
ag3
(g4
(S'S11'
I0
I1
tRp2265
(I3
S'|'
NNNI11
I1
I0
tbS'oW1OEsP7Dds'
tRp2266
ag3
(g4
(S'S11'
I0
I1
tRp2267
(I3
S'|'
NNNI11
I1
I0
tbS'JY-krIuEUm4'
tRp2268
ag3
(g4
(S'S11'
I0
I1
tRp2269
(I3
S'|'
NNNI11
I1
I0
tbS'rzsk_IvI7bQ'
tRp2270
ag3
(g4
(S'S6'
I0
I1
tRp2271
(I3
S'|'
NNNI6
I1
I0
tbS'241172'
tRp2272
ag3
(g4
(S'S11'
I0
I1
tRp2273
(I3
S'|'
NNNI11
I1
I0
tbS'yG3wpvLUQcg'
tRp2274
ag3
(g4
(S'S11'
I0
I1
tRp2275
(I3
S'|'
NNNI11
I1
I0
tbS'XDVkhOziCkg'
tRp2276
ag3
(g4
(S'S11'
I0
I1
tRp2277
(I3
S'|'
NNNI11
I1
I0
tbS'yrIXBklJ5YQ'
tRp2278
ag3
(g4
(S'S11'
I0
I1
tRp2279
(I3
S'|'
NNNI11
I1
I0
tbS'K_K3wpxkRc8'
tRp2280
ag3
(g4
(S'S5'
I0
I1
tRp2281
(I3
S'|'
NNNI5
I1
I0
tbS'75938'
tRp2282
ag3
(g4
(S'S6'
I0
I1
tRp2283
(I3
S'|'
NNNI6
I1
I0
tbS'122439'
tRp2284
ag3
(g4
(S'S11'
I0
I1
tRp2285
(I3
S'|'
NNNI11
I1
I0
tbS'wOjnqud5GBA'
tRp2286
ag3
(g4
(S'S11'
I0
I1
tRp2287
(I3
S'|'
NNNI11
I1
I0
tbS'kx544gnOZB0'
tRp2288
ag3
(g4
(S'S6'
I0
I1
tRp2289
(I3
S'|'
NNNI6
I1
I0
tbS'266366'
tRp2290
ag3
(g4
(S'S11'
I0
I1
tRp2291
(I3
S'|'
NNNI11
I1
I0
tbS'6slq62RwH3Q'
tRp2292
ag3
(g4
(S'S11'
I0
I1
tRp2293
(I3
S'|'
NNNI11
I1
I0
tbS'6WDchK7TuL8'
tRp2294
ag3
(g4
(S'S11'
I0
I1
tRp2295
(I3
S'|'
NNNI11
I1
I0
tbS'FLyWn2DCci4'
tRp2296
ag3
(g4
(S'S11'
I0
I1
tRp2297
(I3
S'|'
NNNI11
I1
I0
tbS'oK951Y2N_k0'
tRp2298
ag3
(g4
(S'S11'
I0
I1
tRp2299
(I3
S'|'
NNNI11
I1
I0
tbS'izFBeXMTgds'
tRp2300
ag3
(g4
(S'S11'
I0
I1
tRp2301
(I3
S'|'
NNNI11
I1
I0
tbS'gXuiIWRxrw4'
tRp2302
ag3
(g4
(S'S11'
I0
I1
tRp2303
(I3
S'|'
NNNI11
I1
I0
tbS'8Cp8c-eQELQ'
tRp2304
ag3
(g4
(S'S11'
I0
I1
tRp2305
(I3
S'|'
NNNI11
I1
I0
tbS'hfK8QtTd7fo'
tRp2306
ag3
(g4
(S'S11'
I0
I1
tRp2307
(I3
S'|'
NNNI11
I1
I0
tbS'auTpzciNgls'
tRp2308
ag3
(g4
(S'S11'
I0
I1
tRp2309
(I3
S'|'
NNNI11
I1
I0
tbS'xge9aYTxxOA'
tRp2310
ag3
(g4
(S'S11'
I0
I1
tRp2311
(I3
S'|'
NNNI11
I1
I0
tbS'mw_ZwML0SbY'
tRp2312
ag3
(g4
(S'S5'
I0
I1
tRp2313
(I3
S'|'
NNNI5
I1
I0
tbS'25522'
tRp2314
ag3
(g4
(S'S11'
I0
I1
tRp2315
(I3
S'|'
NNNI11
I1
I0
tbS'Y6zyM1nDhN0'
tRp2316
ag3
(g4
(S'S11'
I0
I1
tRp2317
(I3
S'|'
NNNI11
I1
I0
tbS'QkMTYY69JYQ'
tRp2318
ag3
(g4
(S'S11'
I0
I1
tRp2319
(I3
S'|'
NNNI11
I1
I0
tbS'hjBQmIWiWgw'
tRp2320
ag3
(g4
(S'S11'
I0
I1
tRp2321
(I3
S'|'
NNNI11
I1
I0
tbS'C2xNDBU2Z0s'
tRp2322
ag3
(g4
(S'S11'
I0
I1
tRp2323
(I3
S'|'
NNNI11
I1
I0
tbS'c7xUcM68IFE'
tRp2324
ag3
(g4
(S'S11'
I0
I1
tRp2325
(I3
S'|'
NNNI11
I1
I0
tbS'-tANM6ETl_M'
tRp2326
ag3
(g4
(S'S11'
I0
I1
tRp2327
(I3
S'|'
NNNI11
I1
I0
tbS'C74-of1rjg4'
tRp2328
ag3
(g4
(S'S6'
I0
I1
tRp2329
(I3
S'|'
NNNI6
I1
I0
tbS'227416'
tRp2330
ag3
(g4
(S'S11'
I0
I1
tRp2331
(I3
S'|'
NNNI11
I1
I0
tbS'2Wo-0trLBjU'
tRp2332
ag3
(g4
(S'S11'
I0
I1
tRp2333
(I3
S'|'
NNNI11
I1
I0
tbS'lzVA--tIse0'
tRp2334
ag3
(g4
(S'S11'
I0
I1
tRp2335
(I3
S'|'
NNNI11
I1
I0
tbS'2cwNG0YuwtQ'
tRp2336
ag3
(g4
(S'S11'
I0
I1
tRp2337
(I3
S'|'
NNNI11
I1
I0
tbS'z6E-ocntPo4'
tRp2338
ag3
(g4
(S'S11'
I0
I1
tRp2339
(I3
S'|'
NNNI11
I1
I0
tbS'd89Z_olwc2Y'
tRp2340
ag3
(g4
(S'S11'
I0
I1
tRp2341
(I3
S'|'
NNNI11
I1
I0
tbS'iEOBNT0HFtU'
tRp2342
ag3
(g4
(S'S11'
I0
I1
tRp2343
(I3
S'|'
NNNI11
I1
I0
tbS'ePiz4zU6crI'
tRp2344
ag3
(g4
(S'S6'
I0
I1
tRp2345
(I3
S'|'
NNNI6
I1
I0
tbS'106077'
tRp2346
ag3
(g4
(S'S11'
I0
I1
tRp2347
(I3
S'|'
NNNI11
I1
I0
tbS'ADYia28RrFU'
tRp2348
ag3
(g4
(S'S11'
I0
I1
tRp2349
(I3
S'|'
NNNI11
I1
I0
tbS'YD5vqR15nco'
tRp2350
ag3
(g4
(S'S11'
I0
I1
tRp2351
(I3
S'|'
NNNI11
I1
I0
tbS'XFGHTk_3hGg'
tRp2352
ag3
(g4
(S'S5'
I0
I1
tRp2353
(I3
S'|'
NNNI5
I1
I0
tbS'98187'
tRp2354
ag3
(g4
(S'S11'
I0
I1
tRp2355
(I3
S'|'
NNNI11
I1
I0
tbS'5OXuBO5buF8'
tRp2356
ag3
(g4
(S'S11'
I0
I1
tRp2357
(I3
S'|'
NNNI11
I1
I0
tbS'MroQfGehC84'
tRp2358
ag3
(g4
(S'S6'
I0
I1
tRp2359
(I3
S'|'
NNNI6
I1
I0
tbS'128752'
tRp2360
ag3
(g4
(S'S11'
I0
I1
tRp2361
(I3
S'|'
NNNI11
I1
I0
tbS'cjgq9d8Zn9g'
tRp2362
ag3
(g4
(S'S11'
I0
I1
tRp2363
(I3
S'|'
NNNI11
I1
I0
tbS'oWAyEzyp2xQ'
tRp2364
ag3
(g4
(S'S11'
I0
I1
tRp2365
(I3
S'|'
NNNI11
I1
I0
tbS'9Jyr5laC8mg'
tRp2366
ag3
(g4
(S'S11'
I0
I1
tRp2367
(I3
S'|'
NNNI11
I1
I0
tbS'dzSv6GwfF-0'
tRp2368
ag3
(g4
(S'S6'
I0
I1
tRp2369
(I3
S'|'
NNNI6
I1
I0
tbS'218708'
tRp2370
ag3
(g4
(S'S11'
I0
I1
tRp2371
(I3
S'|'
NNNI11
I1
I0
tbS'KQ86HmgwUns'
tRp2372
ag3
(g4
(S'S11'
I0
I1
tRp2373
(I3
S'|'
NNNI11
I1
I0
tbS'rZqWAnrJ1Nc'
tRp2374
ag3
(g4
(S'S11'
I0
I1
tRp2375
(I3
S'|'
NNNI11
I1
I0
tbS'aI1tdJPHz2I'
tRp2376
ag3
(g4
(S'S11'
I0
I1
tRp2377
(I3
S'|'
NNNI11
I1
I0
tbS'axQ5CDRawO0'
tRp2378
ag3
(g4
(S'S11'
I0
I1
tRp2379
(I3
S'|'
NNNI11
I1
I0
tbS'sC1NvtirijU'
tRp2380
ag3
(g4
(S'S11'
I0
I1
tRp2381
(I3
S'|'
NNNI11
I1
I0
tbS'c5AJbOd794U'
tRp2382
ag3
(g4
(S'S11'
I0
I1
tRp2383
(I3
S'|'
NNNI11
I1
I0
tbS'F6Ci45lP5aA'
tRp2384
ag3
(g4
(S'S11'
I0
I1
tRp2385
(I3
S'|'
NNNI11
I1
I0
tbS'4AQC7_uCuEE'
tRp2386
ag3
(g4
(S'S11'
I0
I1
tRp2387
(I3
S'|'
NNNI11
I1
I0
tbS'EOkdFMw0pmk'
tRp2388
ag3
(g4
(S'S11'
I0
I1
tRp2389
(I3
S'|'
NNNI11
I1
I0
tbS'D-DqVICJXBU'
tRp2390
ag3
(g4
(S'S11'
I0
I1
tRp2391
(I3
S'|'
NNNI11
I1
I0
tbS'r1erb5PSm1A'
tRp2392
ag3
(g4
(S'S11'
I0
I1
tRp2393
(I3
S'|'
NNNI11
I1
I0
tbS'dLmtsRyRH4s'
tRp2394
ag3
(g4
(S'S6'
I0
I1
tRp2395
(I3
S'|'
NNNI6
I1
I0
tbS'247382'
tRp2396
ag3
(g4
(S'S11'
I0
I1
tRp2397
(I3
S'|'
NNNI11
I1
I0
tbS'Q7nhtfkIPN4'
tRp2398
ag3
(g4
(S'S11'
I0
I1
tRp2399
(I3
S'|'
NNNI11
I1
I0
tbS'LityRNuQihc'
tRp2400
ag3
(g4
(S'S11'
I0
I1
tRp2401
(I3
S'|'
NNNI11
I1
I0
tbS'vXABB4tBBUU'
tRp2402
ag3
(g4
(S'S11'
I0
I1
tRp2403
(I3
S'|'
NNNI11
I1
I0
tbS'assx_NKo-L8'
tRp2404
ag3
(g4
(S'S11'
I0
I1
tRp2405
(I3
S'|'
NNNI11
I1
I0
tbS'OEOkmrKvTUo'
tRp2406
ag3
(g4
(S'S11'
I0
I1
tRp2407
(I3
S'|'
NNNI11
I1
I0
tbS'dZK01jhM27k'
tRp2408
ag3
(g4
(S'S11'
I0
I1
tRp2409
(I3
S'|'
NNNI11
I1
I0
tbS'4Fw9TbWIVJI'
tRp2410
ag3
(g4
(S'S11'
I0
I1
tRp2411
(I3
S'|'
NNNI11
I1
I0
tbS'N3vSaV8Ztrg'
tRp2412
ag3
(g4
(S'S6'
I0
I1
tRp2413
(I3
S'|'
NNNI6
I1
I0
tbS'251417'
tRp2414
ag3
(g4
(S'S11'
I0
I1
tRp2415
(I3
S'|'
NNNI11
I1
I0
tbS'hSEfYcIjIr4'
tRp2416
ag3
(g4
(S'S11'
I0
I1
tRp2417
(I3
S'|'
NNNI11
I1
I0
tbS'TksWzxo81Mk'
tRp2418
ag3
(g4
(S'S11'
I0
I1
tRp2419
(I3
S'|'
NNNI11
I1
I0
tbS'9XCmrHbU-rU'
tRp2420
ag3
(g4
(S'S11'
I0
I1
tRp2421
(I3
S'|'
NNNI11
I1
I0
tbS'IiX1k0oYW_w'
tRp2422
ag3
(g4
(S'S11'
I0
I1
tRp2423
(I3
S'|'
NNNI11
I1
I0
tbS'zx4W0Vuus-I'
tRp2424
ag3
(g4
(S'S11'
I0
I1
tRp2425
(I3
S'|'
NNNI11
I1
I0
tbS'uITHY4LORDs'
tRp2426
ag3
(g4
(S'S11'
I0
I1
tRp2427
(I3
S'|'
NNNI11
I1
I0
tbS'e-2QlzFeyNU'
tRp2428
ag3
(g4
(S'S11'
I0
I1
tRp2429
(I3
S'|'
NNNI11
I1
I0
tbS'RTzDzj4NxIM'
tRp2430
ag3
(g4
(S'S11'
I0
I1
tRp2431
(I3
S'|'
NNNI11
I1
I0
tbS'7UlSX-syPeo'
tRp2432
ag3
(g4
(S'S11'
I0
I1
tRp2433
(I3
S'|'
NNNI11
I1
I0
tbS'6E-yr6nPxGA'
tRp2434
ag3
(g4
(S'S11'
I0
I1
tRp2435
(I3
S'|'
NNNI11
I1
I0
tbS'pIMByitigYI'
tRp2436
ag3
(g4
(S'S11'
I0
I1
tRp2437
(I3
S'|'
NNNI11
I1
I0
tbS'ZDz8Qr-sJ3E'
tRp2438
ag3
(g4
(S'S11'
I0
I1
tRp2439
(I3
S'|'
NNNI11
I1
I0
tbS'L5a2ijeWpUI'
tRp2440
ag3
(g4
(S'S11'
I0
I1
tRp2441
(I3
S'|'
NNNI11
I1
I0
tbS'MKShLlJ7X7g'
tRp2442
ag3
(g4
(S'S6'
I0
I1
tRp2443
(I3
S'|'
NNNI6
I1
I0
tbS'223926'
tRp2444
ag3
(g4
(S'S11'
I0
I1
tRp2445
(I3
S'|'
NNNI11
I1
I0
tbS'IDVbPEket6U'
tRp2446
ag3
(g4
(S'S11'
I0
I1
tRp2447
(I3
S'|'
NNNI11
I1
I0
tbS'G38DwNDQ8Cc'
tRp2448
ag3
(g4
(S'S11'
I0
I1
tRp2449
(I3
S'|'
NNNI11
I1
I0
tbS'JW3OfSCZlhc'
tRp2450
ag3
(g4
(S'S11'
I0
I1
tRp2451
(I3
S'|'
NNNI11
I1
I0
tbS'2lj0BaPsJpM'
tRp2452
ag3
(g4
(S'S11'
I0
I1
tRp2453
(I3
S'|'
NNNI11
I1
I0
tbS'0JuRmhhgMw8'
tRp2454
ag3
(g4
(S'S11'
I0
I1
tRp2455
(I3
S'|'
NNNI11
I1
I0
tbS'eMa6gbD7id0'
tRp2456
ag3
(g4
(S'S11'
I0
I1
tRp2457
(I3
S'|'
NNNI11
I1
I0
tbS'qlDT-bmIzQI'
tRp2458
ag3
(g4
(S'S11'
I0
I1
tRp2459
(I3
S'|'
NNNI11
I1
I0
tbS'MJnc4GUhUuY'
tRp2460
ag3
(g4
(S'S6'
I0
I1
tRp2461
(I3
S'|'
NNNI6
I1
I0
tbS'197778'
tRp2462
ag3
(g4
(S'S4'
I0
I1
tRp2463
(I3
S'|'
NNNI4
I1
I0
tbS'8404'
tRp2464
ag3
(g4
(S'S11'
I0
I1
tRp2465
(I3
S'|'
NNNI11
I1
I0
tbS'5QXHyL3BMto'
tRp2466
ag3
(g4
(S'S6'
I0
I1
tRp2467
(I3
S'|'
NNNI6
I1
I0
tbS'255226'
tRp2468
ag3
(g4
(S'S11'
I0
I1
tRp2469
(I3
S'|'
NNNI11
I1
I0
tbS'4qjz4BQCZyM'
tRp2470
ag3
(g4
(S'S6'
I0
I1
tRp2471
(I3
S'|'
NNNI6
I1
I0
tbS'255224'
tRp2472
ag3
(g4
(S'S11'
I0
I1
tRp2473
(I3
S'|'
NNNI11
I1
I0
tbS'babuyKl7EAw'
tRp2474
ag3
(g4
(S'S11'
I0
I1
tRp2475
(I3
S'|'
NNNI11
I1
I0
tbS'qo2reupzUE0'
tRp2476
ag3
(g4
(S'S11'
I0
I1
tRp2477
(I3
S'|'
NNNI11
I1
I0
tbS'oDznO5w3v0U'
tRp2478
ag3
(g4
(S'S11'
I0
I1
tRp2479
(I3
S'|'
NNNI11
I1
I0
tbS'FMW6diQ9rMo'
tRp2480
ag3
(g4
(S'S6'
I0
I1
tRp2481
(I3
S'|'
NNNI6
I1
I0
tbS'284673'
tRp2482
ag3
(g4
(S'S11'
I0
I1
tRp2483
(I3
S'|'
NNNI11
I1
I0
tbS'jEQoBvc7V1o'
tRp2484
ag3
(g4
(S'S6'
I0
I1
tRp2485
(I3
S'|'
NNNI6
I1
I0
tbS'288766'
tRp2486
ag3
(g4
(S'S11'
I0
I1
tRp2487
(I3
S'|'
NNNI11
I1
I0
tbS'8x81fzwcJko'
tRp2488
ag3
(g4
(S'S11'
I0
I1
tRp2489
(I3
S'|'
NNNI11
I1
I0
tbS'mQTaEIrNxnQ'
tRp2490
ag3
(g4
(S'S11'
I0
I1
tRp2491
(I3
S'|'
NNNI11
I1
I0
tbS'yEtfjJOMMCs'
tRp2492
ag3
(g4
(S'S11'
I0
I1
tRp2493
(I3
S'|'
NNNI11
I1
I0
tbS'Vv2DTPyyw90'
tRp2494
ag3
(g4
(S'S11'
I0
I1
tRp2495
(I3
S'|'
NNNI11
I1
I0
tbS'Gg9ZcRlwnbc'
tRp2496
ag3
(g4
(S'S11'
I0
I1
tRp2497
(I3
S'|'
NNNI11
I1
I0
tbS'pAclBdj20ZU'
tRp2498
ag3
(g4
(S'S11'
I0
I1
tRp2499
(I3
S'|'
NNNI11
I1
I0
tbS'CXojk-oSaEw'
tRp2500
ag3
(g4
(S'S11'
I0
I1
tRp2501
(I3
S'|'
NNNI11
I1
I0
tbS'efLrpnuLwyU'
tRp2502
ag3
(g4
(S'S11'
I0
I1
tRp2503
(I3
S'|'
NNNI11
I1
I0
tbS'C8Fhlk-eczU'
tRp2504
ag3
(g4
(S'S11'
I0
I1
tRp2505
(I3
S'|'
NNNI11
I1
I0
tbS'pjWLxORDDP4'
tRp2506
ag3
(g4
(S'S11'
I0
I1
tRp2507
(I3
S'|'
NNNI11
I1
I0
tbS'26WrTHLJJIU'
tRp2508
ag3
(g4
(S'S11'
I0
I1
tRp2509
(I3
S'|'
NNNI11
I1
I0
tbS'YVBsDJtAbk4'
tRp2510
ag3
(g4
(S'S11'
I0
I1
tRp2511
(I3
S'|'
NNNI11
I1
I0
tbS'VcZffwwL0bw'
tRp2512
ag3
(g4
(S'S11'
I0
I1
tRp2513
(I3
S'|'
NNNI11
I1
I0
tbS'ZdX9sUd3bAI'
tRp2514
ag3
(g4
(S'S11'
I0
I1
tRp2515
(I3
S'|'
NNNI11
I1
I0
tbS'iH04VOkbof0'
tRp2516
ag3
(g4
(S'S11'
I0
I1
tRp2517
(I3
S'|'
NNNI11
I1
I0
tbS'JLqBVj6f5gI'
tRp2518
ag3
(g4
(S'S5'
I0
I1
tRp2519
(I3
S'|'
NNNI5
I1
I0
tbS'31197'
tRp2520
ag3
(g4
(S'S11'
I0
I1
tRp2521
(I3
S'|'
NNNI11
I1
I0
tbS'k0cGUNUHuyY'
tRp2522
ag3
(g4
(S'S11'
I0
I1
tRp2523
(I3
S'|'
NNNI11
I1
I0
tbS'03X1FwF6udc'
tRp2524
ag3
(g4
(S'S11'
I0
I1
tRp2525
(I3
S'|'
NNNI11
I1
I0
tbS'N0GhVkCwrqw'
tRp2526
ag3
(g4
(S'S11'
I0
I1
tRp2527
(I3
S'|'
NNNI11
I1
I0
tbS'xbl7bU5PGBs'
tRp2528
ag3
(g4
(S'S11'
I0
I1
tRp2529
(I3
S'|'
NNNI11
I1
I0
tbS'K7KEtrgBkz4'
tRp2530
ag3
(g4
(S'S11'
I0
I1
tRp2531
(I3
S'|'
NNNI11
I1
I0
tbS'4H9RfQuqsvg'
tRp2532
ag3
(g4
(S'S11'
I0
I1
tRp2533
(I3
S'|'
NNNI11
I1
I0
tbS'l8LTcZJ-_8k'
tRp2534
ag3
(g4
(S'S11'
I0
I1
tRp2535
(I3
S'|'
NNNI11
I1
I0
tbS'BBSVLGf7zPI'
tRp2536
ag3
(g4
(S'S6'
I0
I1
tRp2537
(I3
S'|'
NNNI6
I1
I0
tbS'267799'
tRp2538
ag3
(g4
(S'S11'
I0
I1
tRp2539
(I3
S'|'
NNNI11
I1
I0
tbS'nHP7l5zAwGA'
tRp2540
ag3
(g4
(S'S11'
I0
I1
tRp2541
(I3
S'|'
NNNI11
I1
I0
tbS'mziQcFSsdRI'
tRp2542
ag3
(g4
(S'S11'
I0
I1
tRp2543
(I3
S'|'
NNNI11
I1
I0
tbS'tQk-eoA7JyE'
tRp2544
ag3
(g4
(S'S11'
I0
I1
tRp2545
(I3
S'|'
NNNI11
I1
I0
tbS'ptgBkE_e5js'
tRp2546
ag3
(g4
(S'S11'
I0
I1
tRp2547
(I3
S'|'
NNNI11
I1
I0
tbS'4HazSkYihtw'
tRp2548
ag3
(g4
(S'S11'
I0
I1
tRp2549
(I3
S'|'
NNNI11
I1
I0
tbS'PGBrZLC15yA'
tRp2550
ag3
(g4
(S'S11'
I0
I1
tRp2551
(I3
S'|'
NNNI11
I1
I0
tbS'jFNgOznarMo'
tRp2552
ag3
(g4
(S'S11'
I0
I1
tRp2553
(I3
S'|'
NNNI11
I1
I0
tbS'X3p50qqFW_w'
tRp2554
ag3
(g4
(S'S11'
I0
I1
tRp2555
(I3
S'|'
NNNI11
I1
I0
tbS'BuPhjBayua8'
tRp2556
ag3
(g4
(S'S6'
I0
I1
tRp2557
(I3
S'|'
NNNI6
I1
I0
tbS'229903'
tRp2558
ag3
(g4
(S'S11'
I0
I1
tRp2559
(I3
S'|'
NNNI11
I1
I0
tbS'jbKDW9URnvM'
tRp2560
ag3
(g4
(S'S11'
I0
I1
tRp2561
(I3
S'|'
NNNI11
I1
I0
tbS'werKCgZ5dFE'
tRp2562
ag3
(g4
(S'S11'
I0
I1
tRp2563
(I3
S'|'
NNNI11
I1
I0
tbS'DNzA2UIkRZk'
tRp2564
ag3
(g4
(S'S11'
I0
I1
tRp2565
(I3
S'|'
NNNI11
I1
I0
tbS'jfSGWBfVNBI'
tRp2566
ag3
(g4
(S'S11'
I0
I1
tRp2567
(I3
S'|'
NNNI11
I1
I0
tbS'MFrwi-RibUk'
tRp2568
ag3
(g4
(S'S11'
I0
I1
tRp2569
(I3
S'|'
NNNI11
I1
I0
tbS'kwkhYpCHWPw'
tRp2570
ag3
(g4
(S'S11'
I0
I1
tRp2571
(I3
S'|'
NNNI11
I1
I0
tbS'1cyUKHOvdYY'
tRp2572
ag3
(g4
(S'S11'
I0
I1
tRp2573
(I3
S'|'
NNNI11
I1
I0
tbS'qrSW93EtuMc'
tRp2574
ag3
(g4
(S'S11'
I0
I1
tRp2575
(I3
S'|'
NNNI11
I1
I0
tbS'TBwetweXRb4'
tRp2576
ag3
(g4
(S'S11'
I0
I1
tRp2577
(I3
S'|'
NNNI11
I1
I0
tbS'hCFV5VLgS0A'
tRp2578
ag3
(g4
(S'S11'
I0
I1
tRp2579
(I3
S'|'
NNNI11
I1
I0
tbS'_BMdEKNF5Js'
tRp2580
ag3
(g4
(S'S5'
I0
I1
tRp2581
(I3
S'|'
NNNI5
I1
I0
tbS'88797'
tRp2582
ag3
(g4
(S'S11'
I0
I1
tRp2583
(I3
S'|'
NNNI11
I1
I0
tbS'IwQWibE8EOM'
tRp2584
ag3
(g4
(S'S11'
I0
I1
tRp2585
(I3
S'|'
NNNI11
I1
I0
tbS'eW1vgHE6FRM'
tRp2586
ag3
(g4
(S'S11'
I0
I1
tRp2587
(I3
S'|'
NNNI11
I1
I0
tbS'1sJjdaXXuJg'
tRp2588
ag3
(g4
(S'S11'
I0
I1
tRp2589
(I3
S'|'
NNNI11
I1
I0
tbS'wUf6AvCMHbQ'
tRp2590
ag3
(g4
(S'S11'
I0
I1
tRp2591
(I3
S'|'
NNNI11
I1
I0
tbS'O0Nn-5UkfoA'
tRp2592
ag3
(g4
(S'S11'
I0
I1
tRp2593
(I3
S'|'
NNNI11
I1
I0
tbS'cS3BDGNDu_8'
tRp2594
ag3
(g4
(S'S11'
I0
I1
tRp2595
(I3
S'|'
NNNI11
I1
I0
tbS'1CjUHNYzW1E'
tRp2596
ag3
(g4
(S'S11'
I0
I1
tRp2597
(I3
S'|'
NNNI11
I1
I0
tbS'_PJ26YwqRJE'
tRp2598
ag3
(g4
(S'S11'
I0
I1
tRp2599
(I3
S'|'
NNNI11
I1
I0
tbS'tUTf9R5u6r0'
tRp2600
ag3
(g4
(S'S11'
I0
I1
tRp2601
(I3
S'|'
NNNI11
I1
I0
tbS'Ve-mmCM8TI0'
tRp2602
ag3
(g4
(S'S11'
I0
I1
tRp2603
(I3
S'|'
NNNI11
I1
I0
tbS'kuQWPuhnlHs'
tRp2604
ag3
(g4
(S'S11'
I0
I1
tRp2605
(I3
S'|'
NNNI11
I1
I0
tbS'XAT2IfFFAU0'
tRp2606
ag3
(g4
(S'S11'
I0
I1
tRp2607
(I3
S'|'
NNNI11
I1
I0
tbS'8M0AlvtMrv8'
tRp2608
ag3
(g4
(S'S11'
I0
I1
tRp2609
(I3
S'|'
NNNI11
I1
I0
tbS'n4xRx0J3rYQ'
tRp2610
ag3
(g4
(S'S11'
I0
I1
tRp2611
(I3
S'|'
NNNI11
I1
I0
tbS'WaaSYRPwQBw'
tRp2612
ag3
(g4
(S'S11'
I0
I1
tRp2613
(I3
S'|'
NNNI11
I1
I0
tbS'QbJiphIpzYc'
tRp2614
ag3
(g4
(S'S11'
I0
I1
tRp2615
(I3
S'|'
NNNI11
I1
I0
tbS'H4w9mU8B3Mc'
tRp2616
ag3
(g4
(S'S11'
I0
I1
tRp2617
(I3
S'|'
NNNI11
I1
I0
tbS'oCsrnIomHos'
tRp2618
ag3
(g4
(S'S11'
I0
I1
tRp2619
(I3
S'|'
NNNI11
I1
I0
tbS'TxRS6vJ9ak0'
tRp2620
ag3
(g4
(S'S11'
I0
I1
tRp2621
(I3
S'|'
NNNI11
I1
I0
tbS'xZ1FrxU6hcg'
tRp2622
ag3
(g4
(S'S11'
I0
I1
tRp2623
(I3
S'|'
NNNI11
I1
I0
tbS'HObh42PhOfw'
tRp2624
ag3
(g4
(S'S11'
I0
I1
tRp2625
(I3
S'|'
NNNI11
I1
I0
tbS'_4PNh8dIILI'
tRp2626
ag3
(g4
(S'S6'
I0
I1
tRp2627
(I3
S'|'
NNNI6
I1
I0
tbS'251646'
tRp2628
ag3
(g4
(S'S11'
I0
I1
tRp2629
(I3
S'|'
NNNI11
I1
I0
tbS'_PKP676ez2c'
tRp2630
ag3
(g4
(S'S11'
I0
I1
tRp2631
(I3
S'|'
NNNI11
I1
I0
tbS'gjSyl6evrWk'
tRp2632
ag3
(g4
(S'S11'
I0
I1
tRp2633
(I3
S'|'
NNNI11
I1
I0
tbS'3OuNMjZo5wg'
tRp2634
ag3
(g4
(S'S11'
I0
I1
tRp2635
(I3
S'|'
NNNI11
I1
I0
tbS'JYsAacFmXEo'
tRp2636
ag3
(g4
(S'S11'
I0
I1
tRp2637
(I3
S'|'
NNNI11
I1
I0
tbS'cAA2mONG98w'
tRp2638
ag3
(g4
(S'S11'
I0
I1
tRp2639
(I3
S'|'
NNNI11
I1
I0
tbS'NZtIGzAzJZM'
tRp2640
ag3
(g4
(S'S11'
I0
I1
tRp2641
(I3
S'|'
NNNI11
I1
I0
tbS'LHC7ZKJy4Zw'
tRp2642
ag3
(g4
(S'S11'
I0
I1
tRp2643
(I3
S'|'
NNNI11
I1
I0
tbS'gfHrSg3BwiQ'
tRp2644
ag3
(g4
(S'S11'
I0
I1
tRp2645
(I3
S'|'
NNNI11
I1
I0
tbS'PANWQeBKStk'
tRp2646
ag3
(g4
(S'S11'
I0
I1
tRp2647
(I3
S'|'
NNNI11
I1
I0
tbS'4Z47qIrVil4'
tRp2648
ag3
(g4
(S'S5'
I0
I1
tRp2649
(I3
S'|'
NNNI5
I1
I0
tbS'45175'
tRp2650
ag3
(g4
(S'S11'
I0
I1
tRp2651
(I3
S'|'
NNNI11
I1
I0
tbS'IkvL4IAiZog'
tRp2652
ag3
(g4
(S'S11'
I0
I1
tRp2653
(I3
S'|'
NNNI11
I1
I0
tbS'MyDLelMxt-A'
tRp2654
ag3
(g4
(S'S11'
I0
I1
tRp2655
(I3
S'|'
NNNI11
I1
I0
tbS'ZmAIDJ_gcXM'
tRp2656
ag3
(g4
(S'S11'
I0
I1
tRp2657
(I3
S'|'
NNNI11
I1
I0
tbS'JlmpDdm1A1Y'
tRp2658
ag3
(g4
(S'S11'
I0
I1
tRp2659
(I3
S'|'
NNNI11
I1
I0
tbS'4iw1jTY-X3A'
tRp2660
ag3
(g4
(S'S11'
I0
I1
tRp2661
(I3
S'|'
NNNI11
I1
I0
tbS'ge071m9bGeY'
tRp2662
ag3
(g4
(S'S11'
I0
I1
tRp2663
(I3
S'|'
NNNI11
I1
I0
tbS'hThsntvCk2s'
tRp2664
ag3
(g4
(S'S11'
I0
I1
tRp2665
(I3
S'|'
NNNI11
I1
I0
tbS'cfX_iuhCbRY'
tRp2666
ag3
(g4
(S'S11'
I0
I1
tRp2667
(I3
S'|'
NNNI11
I1
I0
tbS'ouhCx4TgHlE'
tRp2668
ag3
(g4
(S'S11'
I0
I1
tRp2669
(I3
S'|'
NNNI11
I1
I0
tbS'NuRvTWhELqs'
tRp2670
ag3
(g4
(S'S11'
I0
I1
tRp2671
(I3
S'|'
NNNI11
I1
I0
tbS'x92920ole0w'
tRp2672
ag3
(g4
(S'S11'
I0
I1
tRp2673
(I3
S'|'
NNNI11
I1
I0
tbS'CZigX1ntOsI'
tRp2674
ag3
(g4
(S'S11'
I0
I1
tRp2675
(I3
S'|'
NNNI11
I1
I0
tbS'QWzIJuhLLrc'
tRp2676
ag3
(g4
(S'S11'
I0
I1
tRp2677
(I3
S'|'
NNNI11
I1
I0
tbS'-wMB_hJL-3o'
tRp2678
ag3
(g4
(S'S11'
I0
I1
tRp2679
(I3
S'|'
NNNI11
I1
I0
tbS'mN1Z5xEOy10'
tRp2680
ag3
(g4
(S'S11'
I0
I1
tRp2681
(I3
S'|'
NNNI11
I1
I0
tbS'OoOD_VBL0i0'
tRp2682
ag3
(g4
(S'S6'
I0
I1
tRp2683
(I3
S'|'
NNNI6
I1
I0
tbS'274219'
tRp2684
ag3
(g4
(S'S11'
I0
I1
tRp2685
(I3
S'|'
NNNI11
I1
I0
tbS'MvFFYObY9A8'
tRp2686
ag3
(g4
(S'S11'
I0
I1
tRp2687
(I3
S'|'
NNNI11
I1
I0
tbS'mKP6TVuixWg'
tRp2688
ag3
(g4
(S'S11'
I0
I1
tRp2689
(I3
S'|'
NNNI11
I1
I0
tbS'UuR4Rw38v_U'
tRp2690
ag3
(g4
(S'S11'
I0
I1
tRp2691
(I3
S'|'
NNNI11
I1
I0
tbS'0cBmQ_ItVUc'
tRp2692
ag3
(g4
(S'S11'
I0
I1
tRp2693
(I3
S'|'
NNNI11
I1
I0
tbS'iMss8xBhFiI'
tRp2694
ag3
(g4
(S'S6'
I0
I1
tRp2695
(I3
S'|'
NNNI6
I1
I0
tbS'107551'
tRp2696
ag3
(g4
(S'S11'
I0
I1
tRp2697
(I3
S'|'
NNNI11
I1
I0
tbS'dbH51F5Zqi4'
tRp2698
ag3
(g4
(S'S11'
I0
I1
tRp2699
(I3
S'|'
NNNI11
I1
I0
tbS'kRsA87VU6EQ'
tRp2700
ag3
(g4
(S'S11'
I0
I1
tRp2701
(I3
S'|'
NNNI11
I1
I0
tbS'S6S2XL0-ZpM'
tRp2702
ag3
(g4
(S'S11'
I0
I1
tRp2703
(I3
S'|'
NNNI11
I1
I0
tbS'gvrfI9e5xHQ'
tRp2704
ag3
(g4
(S'S11'
I0
I1
tRp2705
(I3
S'|'
NNNI11
I1
I0
tbS'dXMAS2tIknw'
tRp2706
ag3
(g4
(S'S11'
I0
I1
tRp2707
(I3
S'|'
NNNI11
I1
I0
tbS'muOYAxkG-Zo'
tRp2708
ag3
(g4
(S'S11'
I0
I1
tRp2709
(I3
S'|'
NNNI11
I1
I0
tbS'MOfEl_1dh-g'
tRp2710
ag3
(g4
(S'S11'
I0
I1
tRp2711
(I3
S'|'
NNNI11
I1
I0
tbS'CL4hDu95Eqw'
tRp2712
ag3
(g4
(S'S11'
I0
I1
tRp2713
(I3
S'|'
NNNI11
I1
I0
tbS'K9U2TAF9DDY'
tRp2714
ag3
(g4
(S'S11'
I0
I1
tRp2715
(I3
S'|'
NNNI11
I1
I0
tbS'ITQTVfk9Iqo'
tRp2716
ag3
(g4
(S'S11'
I0
I1
tRp2717
(I3
S'|'
NNNI11
I1
I0
tbS'McnbZjgCPLw'
tRp2718
ag3
(g4
(S'S5'
I0
I1
tRp2719
(I3
S'|'
NNNI5
I1
I0
tbS'70420'
tRp2720
ag3
(g4
(S'S11'
I0
I1
tRp2721
(I3
S'|'
NNNI11
I1
I0
tbS'5qQs9Cfydo4'
tRp2722
ag3
(g4
(S'S11'
I0
I1
tRp2723
(I3
S'|'
NNNI11
I1
I0
tbS'DEFDuYyc-Xw'
tRp2724
ag3
(g4
(S'S11'
I0
I1
tRp2725
(I3
S'|'
NNNI11
I1
I0
tbS'opHUZsc2WO8'
tRp2726
ag3
(g4
(S'S11'
I0
I1
tRp2727
(I3
S'|'
NNNI11
I1
I0
tbS'_BtdwH6mfWg'
tRp2728
ag3
(g4
(S'S11'
I0
I1
tRp2729
(I3
S'|'
NNNI11
I1
I0
tbS'zwRBZisdpQ0'
tRp2730
ag3
(g4
(S'S11'
I0
I1
tRp2731
(I3
S'|'
NNNI11
I1
I0
tbS'GMnoxaqqReQ'
tRp2732
ag3
(g4
(S'S11'
I0
I1
tRp2733
(I3
S'|'
NNNI11
I1
I0
tbS'CK31s0kfp-k'
tRp2734
ag3
(g4
(S'S11'
I0
I1
tRp2735
(I3
S'|'
NNNI11
I1
I0
tbS'GRFXnnrQaB4'
tRp2736
ag3
(g4
(S'S6'
I0
I1
tRp2737
(I3
S'|'
NNNI6
I1
I0
tbS'260011'
tRp2738
ag3
(g4
(S'S11'
I0
I1
tRp2739
(I3
S'|'
NNNI11
I1
I0
tbS'SRP5FYP71Ng'
tRp2740
ag3
(g4
(S'S11'
I0
I1
tRp2741
(I3
S'|'
NNNI11
I1
I0
tbS'X6-jJO00DMg'
tRp2742
ag3
(g4
(S'S11'
I0
I1
tRp2743
(I3
S'|'
NNNI11
I1
I0
tbS'q3QUybiOYeU'
tRp2744
ag3
(g4
(S'S11'
I0
I1
tRp2745
(I3
S'|'
NNNI11
I1
I0
tbS'EZkOWskJl20'
tRp2746
ag3
(g4
(S'S11'
I0
I1
tRp2747
(I3
S'|'
NNNI11
I1
I0
tbS'FmIS69vB12I'
tRp2748
ag3
(g4
(S'S11'
I0
I1
tRp2749
(I3
S'|'
NNNI11
I1
I0
tbS'8UH0aPUf7sQ'
tRp2750
ag3
(g4
(S'S11'
I0
I1
tRp2751
(I3
S'|'
NNNI11
I1
I0
tbS'_2u0MkRqpjA'
tRp2752
ag3
(g4
(S'S11'
I0
I1
tRp2753
(I3
S'|'
NNNI11
I1
I0
tbS'd99mfGIenCo'
tRp2754
ag3
(g4
(S'S11'
I0
I1
tRp2755
(I3
S'|'
NNNI11
I1
I0
tbS'RS5WM3q2ZZQ'
tRp2756
ag3
(g4
(S'S11'
I0
I1
tRp2757
(I3
S'|'
NNNI11
I1
I0
tbS'1rVly2oeBJg'
tRp2758
ag3
(g4
(S'S11'
I0
I1
tRp2759
(I3
S'|'
NNNI11
I1
I0
tbS'dJ5MXl66-UQ'
tRp2760
ag3
(g4
(S'S11'
I0
I1
tRp2761
(I3
S'|'
NNNI11
I1
I0
tbS'2Vtv2gPzM7w'
tRp2762
ag3
(g4
(S'S11'
I0
I1
tRp2763
(I3
S'|'
NNNI11
I1
I0
tbS'kKkZihSbxF4'
tRp2764
ag3
(g4
(S'S11'
I0
I1
tRp2765
(I3
S'|'
NNNI11
I1
I0
tbS'n5J1ZkGUGnU'
tRp2766
ag3
(g4
(S'S5'
I0
I1
tRp2767
(I3
S'|'
NNNI5
I1
I0
tbS'21638'
tRp2768
ag3
(g4
(S'S11'
I0
I1
tRp2769
(I3
S'|'
NNNI11
I1
I0
tbS'W-q9bPlMIVI'
tRp2770
ag3
(g4
(S'S5'
I0
I1
tRp2771
(I3
S'|'
NNNI5
I1
I0
tbS'59333'
tRp2772
ag3
(g4
(S'S11'
I0
I1
tRp2773
(I3
S'|'
NNNI11
I1
I0
tbS'EHbZ2EeVags'
tRp2774
ag3
(g4
(S'S11'
I0
I1
tRp2775
(I3
S'|'
NNNI11
I1
I0
tbS'qvIhzmujTi8'
tRp2776
ag3
(g4
(S'S11'
I0
I1
tRp2777
(I3
S'|'
NNNI11
I1
I0
tbS'32j1yMF37hA'
tRp2778
ag3
(g4
(S'S11'
I0
I1
tRp2779
(I3
S'|'
NNNI11
I1
I0
tbS'cOcNe3L4VAg'
tRp2780
ag3
(g4
(S'S11'
I0
I1
tRp2781
(I3
S'|'
NNNI11
I1
I0
tbS'bU6CgE_kMRY'
tRp2782
ag3
(g4
(S'S11'
I0
I1
tRp2783
(I3
S'|'
NNNI11
I1
I0
tbS'5JMpMKAO-Mk'
tRp2784
ag3
(g4
(S'S5'
I0
I1
tRp2785
(I3
S'|'
NNNI5
I1
I0
tbS'94215'
tRp2786
ag3
(g4
(S'S11'
I0
I1
tRp2787
(I3
S'|'
NNNI11
I1
I0
tbS'wNx1ZnQ0MDQ'
tRp2788
ag3
(g4
(S'S6'
I0
I1
tRp2789
(I3
S'|'
NNNI6
I1
I0
tbS'283495'
tRp2790
ag3
(g4
(S'S11'
I0
I1
tRp2791
(I3
S'|'
NNNI11
I1
I0
tbS'ihuGFUrzD30'
tRp2792
ag3
(g4
(S'S11'
I0
I1
tRp2793
(I3
S'|'
NNNI11
I1
I0
tbS'7eWclVCXOtk'
tRp2794
ag3
(g4
(S'S11'
I0
I1
tRp2795
(I3
S'|'
NNNI11
I1
I0
tbS'GMHW6XEO1ms'
tRp2796
ag3
(g4
(S'S11'
I0
I1
tRp2797
(I3
S'|'
NNNI11
I1
I0
tbS'4BoE-woHtwA'
tRp2798
ag3
(g4
(S'S11'
I0
I1
tRp2799
(I3
S'|'
NNNI11
I1
I0
tbS'RImmdklTOW0'
tRp2800
ag3
(g4
(S'S11'
I0
I1
tRp2801
(I3
S'|'
NNNI11
I1
I0
tbS'ap465Tlzf88'
tRp2802
ag3
(g4
(S'S5'
I0
I1
tRp2803
(I3
S'|'
NNNI5
I1
I0
tbS'37117'
tRp2804
ag3
(g4
(S'S11'
I0
I1
tRp2805
(I3
S'|'
NNNI11
I1
I0
tbS'dDFyJp_OkeA'
tRp2806
ag3
(g4
(S'S11'
I0
I1
tRp2807
(I3
S'|'
NNNI11
I1
I0
tbS'fTKe7E_4OCQ'
tRp2808
ag3
(g4
(S'S11'
I0
I1
tRp2809
(I3
S'|'
NNNI11
I1
I0
tbS'BRdw-_dbJXc'
tRp2810
ag3
(g4
(S'S11'
I0
I1
tRp2811
(I3
S'|'
NNNI11
I1
I0
tbS'Rdf0Psjyrwc'
tRp2812
ag3
(g4
(S'S11'
I0
I1
tRp2813
(I3
S'|'
NNNI11
I1
I0
tbS'w_qYZSVx2dM'
tRp2814
ag3
(g4
(S'S11'
I0
I1
tRp2815
(I3
S'|'
NNNI11
I1
I0
tbS'yHtR71rx16I'
tRp2816
ag3
(g4
(S'S6'
I0
I1
tRp2817
(I3
S'|'
NNNI6
I1
I0
tbS'262226'
tRp2818
ag3
(g4
(S'S11'
I0
I1
tRp2819
(I3
S'|'
NNNI11
I1
I0
tbS'yOQHOiswVjc'
tRp2820
ag3
(g4
(S'S11'
I0
I1
tRp2821
(I3
S'|'
NNNI11
I1
I0
tbS'QUpI5kMw_nA'
tRp2822
ag3
(g4
(S'S6'
I0
I1
tRp2823
(I3
S'|'
NNNI6
I1
I0
tbS'273314'
tRp2824
ag3
(g4
(S'S11'
I0
I1
tRp2825
(I3
S'|'
NNNI11
I1
I0
tbS'S9PDgK7fpJI'
tRp2826
ag3
(g4
(S'S11'
I0
I1
tRp2827
(I3
S'|'
NNNI11
I1
I0
tbS'WYSomBHdl4c'
tRp2828
ag3
(g4
(S'S11'
I0
I1
tRp2829
(I3
S'|'
NNNI11
I1
I0
tbS'R9ypacCuEZo'
tRp2830
ag3
(g4
(S'S11'
I0
I1
tRp2831
(I3
S'|'
NNNI11
I1
I0
tbS'fW1pK2L6RgM'
tRp2832
ag3
(g4
(S'S6'
I0
I1
tRp2833
(I3
S'|'
NNNI6
I1
I0
tbS'243338'
tRp2834
ag3
(g4
(S'S11'
I0
I1
tRp2835
(I3
S'|'
NNNI11
I1
I0
tbS'N0pKIn6VhOw'
tRp2836
ag3
(g4
(S'S11'
I0
I1
tRp2837
(I3
S'|'
NNNI11
I1
I0
tbS'he475nnmMi0'
tRp2838
ag3
(g4
(S'S11'
I0
I1
tRp2839
(I3
S'|'
NNNI11
I1
I0
tbS'YodtMIsjM0c'
tRp2840
ag3
(g4
(S'S11'
I0
I1
tRp2841
(I3
S'|'
NNNI11
I1
I0
tbS'HUH9BXVmAig'
tRp2842
ag3
(g4
(S'S5'
I0
I1
tRp2843
(I3
S'|'
NNNI5
I1
I0
tbS'89787'
tRp2844
ag3
(g4
(S'S11'
I0
I1
tRp2845
(I3
S'|'
NNNI11
I1
I0
tbS'Mw4EZYZAd9c'
tRp2846
ag3
(g4
(S'S11'
I0
I1
tRp2847
(I3
S'|'
NNNI11
I1
I0
tbS'Itqbc2TBXWY'
tRp2848
ag3
(g4
(S'S11'
I0
I1
tRp2849
(I3
S'|'
NNNI11
I1
I0
tbS'Vw4-ae-ucHE'
tRp2850
ag3
(g4
(S'S11'
I0
I1
tRp2851
(I3
S'|'
NNNI11
I1
I0
tbS'dEBug0QYayY'
tRp2852
ag3
(g4
(S'S6'
I0
I1
tRp2853
(I3
S'|'
NNNI6
I1
I0
tbS'106941'
tRp2854
ag3
(g4
(S'S11'
I0
I1
tRp2855
(I3
S'|'
NNNI11
I1
I0
tbS'mOnyMWhb5Ac'
tRp2856
ag3
(g4
(S'S11'
I0
I1
tRp2857
(I3
S'|'
NNNI11
I1
I0
tbS'OIJr0voCvVQ'
tRp2858
ag3
(g4
(S'S11'
I0
I1
tRp2859
(I3
S'|'
NNNI11
I1
I0
tbS'EfQoSpEZa0o'
tRp2860
ag3
(g4
(S'S11'
I0
I1
tRp2861
(I3
S'|'
NNNI11
I1
I0
tbS'zPskvGHHQtE'
tRp2862
ag3
(g4
(S'S11'
I0
I1
tRp2863
(I3
S'|'
NNNI11
I1
I0
tbS'MNLG4-diuYM'
tRp2864
ag3
(g4
(S'S11'
I0
I1
tRp2865
(I3
S'|'
NNNI11
I1
I0
tbS'PtH_8O__EAY'
tRp2866
ag3
(g4
(S'S11'
I0
I1
tRp2867
(I3
S'|'
NNNI11
I1
I0
tbS'xTBBDx3DkXQ'
tRp2868
ag3
(g4
(S'S11'
I0
I1
tRp2869
(I3
S'|'
NNNI11
I1
I0
tbS'd38u9n5GOLM'
tRp2870
ag3
(g4
(S'S11'
I0
I1
tRp2871
(I3
S'|'
NNNI11
I1
I0
tbS'aEaM_LOI-BM'
tRp2872
ag3
(g4
(S'S11'
I0
I1
tRp2873
(I3
S'|'
NNNI11
I1
I0
tbS'xfP0bm6Z-7E'
tRp2874
ag3
(g4
(S'S11'
I0
I1
tRp2875
(I3
S'|'
NNNI11
I1
I0
tbS'BAi3ZJo5Vwg'
tRp2876
ag3
(g4
(S'S11'
I0
I1
tRp2877
(I3
S'|'
NNNI11
I1
I0
tbS'5Tqu1IXJjGY'
tRp2878
ag3
(g4
(S'S11'
I0
I1
tRp2879
(I3
S'|'
NNNI11
I1
I0
tbS'8VB6pdJTpX4'
tRp2880
ag3
(g4
(S'S11'
I0
I1
tRp2881
(I3
S'|'
NNNI11
I1
I0
tbS'aZjCq_hv2Pk'
tRp2882
ag3
(g4
(S'S11'
I0
I1
tRp2883
(I3
S'|'
NNNI11
I1
I0
tbS'PMH4mdJeojE'
tRp2884
ag3
(g4
(S'S11'
I0
I1
tRp2885
(I3
S'|'
NNNI11
I1
I0
tbS'WMzvDL7b4sM'
tRp2886
ag3
(g4
(S'S11'
I0
I1
tRp2887
(I3
S'|'
NNNI11
I1
I0
tbS'7Vp6Lvin1rA'
tRp2888
ag3
(g4
(S'S11'
I0
I1
tRp2889
(I3
S'|'
NNNI11
I1
I0
tbS'_WkXQNVLQXs'
tRp2890
ag3
(g4
(S'S6'
I0
I1
tRp2891
(I3
S'|'
NNNI6
I1
I0
tbS'239235'
tRp2892
ag3
(g4
(S'S11'
I0
I1
tRp2893
(I3
S'|'
NNNI11
I1
I0
tbS'MMaEsDdBsvM'
tRp2894
ag3
(g4
(S'S11'
I0
I1
tRp2895
(I3
S'|'
NNNI11
I1
I0
tbS'Ns_h5IVcZ9k'
tRp2896
ag3
(g4
(S'S11'
I0
I1
tRp2897
(I3
S'|'
NNNI11
I1
I0
tbS'Ha7DMd_iKyM'
tRp2898
ag3
(g4
(S'S11'
I0
I1
tRp2899
(I3
S'|'
NNNI11
I1
I0
tbS'_qVgNLJCYdA'
tRp2900
ag3
(g4
(S'S11'
I0
I1
tRp2901
(I3
S'|'
NNNI11
I1
I0
tbS'xBsrNFxnnuY'
tRp2902
ag3
(g4
(S'S11'
I0
I1
tRp2903
(I3
S'|'
NNNI11
I1
I0
tbS'HLFaW4oVP9E'
tRp2904
ag3
(g4
(S'S11'
I0
I1
tRp2905
(I3
S'|'
NNNI11
I1
I0
tbS'QE0pAVSPsKQ'
tRp2906
ag3
(g4
(S'S11'
I0
I1
tRp2907
(I3
S'|'
NNNI11
I1
I0
tbS'eTCnM472-cQ'
tRp2908
ag3
(g4
(S'S11'
I0
I1
tRp2909
(I3
S'|'
NNNI11
I1
I0
tbS'_xjBqNfiEY4'
tRp2910
ag3
(g4
(S'S11'
I0
I1
tRp2911
(I3
S'|'
NNNI11
I1
I0
tbS'2RDubrUjI-k'
tRp2912
ag3
(g4
(S'S6'
I0
I1
tRp2913
(I3
S'|'
NNNI6
I1
I0
tbS'206049'
tRp2914
ag3
(g4
(S'S11'
I0
I1
tRp2915
(I3
S'|'
NNNI11
I1
I0
tbS'MFXQH7ZlBJI'
tRp2916
ag3
(g4
(S'S11'
I0
I1
tRp2917
(I3
S'|'
NNNI11
I1
I0
tbS'3Wi0if_L6Ug'
tRp2918
ag3
(g4
(S'S11'
I0
I1
tRp2919
(I3
S'|'
NNNI11
I1
I0
tbS'VZqkWIPmH6w'
tRp2920
ag3
(g4
(S'S11'
I0
I1
tRp2921
(I3
S'|'
NNNI11
I1
I0
tbS'XbolrpSc0KU'
tRp2922
ag3
(g4
(S'S11'
I0
I1
tRp2923
(I3
S'|'
NNNI11
I1
I0
tbS'uU_3tbZ1zG8'
tRp2924
ag3
(g4
(S'S11'
I0
I1
tRp2925
(I3
S'|'
NNNI11
I1
I0
tbS'bge5PUG3G4A'
tRp2926
ag3
(g4
(S'S6'
I0
I1
tRp2927
(I3
S'|'
NNNI6
I1
I0
tbS'130633'
tRp2928
ag3
(g4
(S'S11'
I0
I1
tRp2929
(I3
S'|'
NNNI11
I1
I0
tbS'0r8KVXUCV6c'
tRp2930
ag3
(g4
(S'S6'
I0
I1
tRp2931
(I3
S'|'
NNNI6
I1
I0
tbS'130149'
tRp2932
ag3
(g4
(S'S11'
I0
I1
tRp2933
(I3
S'|'
NNNI11
I1
I0
tbS'H26MMmrHTlQ'
tRp2934
ag3
(g4
(S'S6'
I0
I1
tRp2935
(I3
S'|'
NNNI6
I1
I0
tbS'114624'
tRp2936
ag3
(g4
(S'S11'
I0
I1
tRp2937
(I3
S'|'
NNNI11
I1
I0
tbS'bJI7-LnKPH4'
tRp2938
ag3
(g4
(S'S11'
I0
I1
tRp2939
(I3
S'|'
NNNI11
I1
I0
tbS'qd6YuFGcBGk'
tRp2940
ag3
(g4
(S'S11'
I0
I1
tRp2941
(I3
S'|'
NNNI11
I1
I0
tbS'KR4MpF0YtgE'
tRp2942
ag3
(g4
(S'S11'
I0
I1
tRp2943
(I3
S'|'
NNNI11
I1
I0
tbS'LKAEv8x9jKI'
tRp2944
ag3
(g4
(S'S11'
I0
I1
tRp2945
(I3
S'|'
NNNI11
I1
I0
tbS'YITXOmhQhYE'
tRp2946
ag3
(g4
(S'S11'
I0
I1
tRp2947
(I3
S'|'
NNNI11
I1
I0
tbS'Wh6sht7xwqQ'
tRp2948
ag3
(g4
(S'S11'
I0
I1
tRp2949
(I3
S'|'
NNNI11
I1
I0
tbS'SxbTZjZD0vU'
tRp2950
ag3
(g4
(S'S11'
I0
I1
tRp2951
(I3
S'|'
NNNI11
I1
I0
tbS'25t8nrkUfRY'
tRp2952
ag3
(g4
(S'S11'
I0
I1
tRp2953
(I3
S'|'
NNNI11
I1
I0
tbS'TWMFQED1Myk'
tRp2954
ag3
(g4
(S'S11'
I0
I1
tRp2955
(I3
S'|'
NNNI11
I1
I0
tbS'qkWdc-E6jGI'
tRp2956
ag3
(g4
(S'S11'
I0
I1
tRp2957
(I3
S'|'
NNNI11
I1
I0
tbS't80DGfWJ3fI'
tRp2958
ag3
(g4
(S'S11'
I0
I1
tRp2959
(I3
S'|'
NNNI11
I1
I0
tbS'CZVmxwrWv34'
tRp2960
ag3
(g4
(S'S11'
I0
I1
tRp2961
(I3
S'|'
NNNI11
I1
I0
tbS'GdFP_p4eQX0'
tRp2962
ag3
(g4
(S'S11'
I0
I1
tRp2963
(I3
S'|'
NNNI11
I1
I0
tbS'ZiM_gkdFGJk'
tRp2964
ag3
(g4
(S'S11'
I0
I1
tRp2965
(I3
S'|'
NNNI11
I1
I0
tbS'sMnbpyFqrlE'
tRp2966
ag3
(g4
(S'S11'
I0
I1
tRp2967
(I3
S'|'
NNNI11
I1
I0
tbS'FphtHpVV-7w'
tRp2968
ag3
(g4
(S'S11'
I0
I1
tRp2969
(I3
S'|'
NNNI11
I1
I0
tbS'-tPCytz4rww'
tRp2970
ag3
(g4
(S'S5'
I0
I1
tRp2971
(I3
S'|'
NNNI5
I1
I0
tbS'79935'
tRp2972
ag3
(g4
(S'S5'
I0
I1
tRp2973
(I3
S'|'
NNNI5
I1
I0
tbS'79934'
tRp2974
ag3
(g4
(S'S11'
I0
I1
tRp2975
(I3
S'|'
NNNI11
I1
I0
tbS'VAr7gJydnys'
tRp2976
ag3
(g4
(S'S11'
I0
I1
tRp2977
(I3
S'|'
NNNI11
I1
I0
tbS'CdB8QBhFccs'
tRp2978
ag3
(g4
(S'S11'
I0
I1
tRp2979
(I3
S'|'
NNNI11
I1
I0
tbS'Oj3XwBBrzXc'
tRp2980
ag3
(g4
(S'S11'
I0
I1
tRp2981
(I3
S'|'
NNNI11
I1
I0
tbS'kxcCxbsKx3w'
tRp2982
ag3
(g4
(S'S11'
I0
I1
tRp2983
(I3
S'|'
NNNI11
I1
I0
tbS'cyOSDKOxb1o'
tRp2984
ag3
(g4
(S'S11'
I0
I1
tRp2985
(I3
S'|'
NNNI11
I1
I0
tbS'fGYbbP8RDLQ'
tRp2986
ag3
(g4
(S'S11'
I0
I1
tRp2987
(I3
S'|'
NNNI11
I1
I0
tbS'R8leu0tEJ4o'
tRp2988
ag3
(g4
(S'S11'
I0
I1
tRp2989
(I3
S'|'
NNNI11
I1
I0
tbS'caLWajc18Y4'
tRp2990
ag3
(g4
(S'S11'
I0
I1
tRp2991
(I3
S'|'
NNNI11
I1
I0
tbS'ltA1VF_DUSc'
tRp2992
ag3
(g4
(S'S11'
I0
I1
tRp2993
(I3
S'|'
NNNI11
I1
I0
tbS'lo0R1mvjDT8'
tRp2994
ag3
(g4
(S'S11'
I0
I1
tRp2995
(I3
S'|'
NNNI11
I1
I0
tbS'FdTczBnXtYU'
tRp2996
ag3
(g4
(S'S11'
I0
I1
tRp2997
(I3
S'|'
NNNI11
I1
I0
tbS'WTF9xgqLIvI'
tRp2998
ag3
(g4
(S'S11'
I0
I1
tRp2999
(I3
S'|'
NNNI11
I1
I0
tbS'NYuY6HVjMZQ'
tRp3000
ag3
(g4
(S'S11'
I0
I1
tRp3001
(I3
S'|'
NNNI11
I1
I0
tbS'NCJTV5KaJJc'
tRp3002
ag3
(g4
(S'S11'
I0
I1
tRp3003
(I3
S'|'
NNNI11
I1
I0
tbS'MyfRrTjglm8'
tRp3004
ag3
(g4
(S'S11'
I0
I1
tRp3005
(I3
S'|'
NNNI11
I1
I0
tbS'2Crezdbre6I'
tRp3006
ag3
(g4
(S'S11'
I0
I1
tRp3007
(I3
S'|'
NNNI11
I1
I0
tbS'i5bmKlHv-SA'
tRp3008
ag3
(g4
(S'S11'
I0
I1
tRp3009
(I3
S'|'
NNNI11
I1
I0
tbS'OHWyYVux-yw'
tRp3010
ag3
(g4
(S'S11'
I0
I1
tRp3011
(I3
S'|'
NNNI11
I1
I0
tbS'fDYZINwIs_A'
tRp3012
ag3
(g4
(S'S11'
I0
I1
tRp3013
(I3
S'|'
NNNI11
I1
I0
tbS'cR_KQlNhoNE'
tRp3014
ag3
(g4
(S'S6'
I0
I1
tRp3015
(I3
S'|'
NNNI6
I1
I0
tbS'227173'
tRp3016
ag3
(g4
(S'S11'
I0
I1
tRp3017
(I3
S'|'
NNNI11
I1
I0
tbS'TZXcQemh8n8'
tRp3018
ag3
(g4
(S'S6'
I0
I1
tRp3019
(I3
S'|'
NNNI6
I1
I0
tbS'210238'
tRp3020
ag3
(g4
(S'S11'
I0
I1
tRp3021
(I3
S'|'
NNNI11
I1
I0
tbS'jUKH63mltLE'
tRp3022
ag3
(g4
(S'S5'
I0
I1
tRp3023
(I3
S'|'
NNNI5
I1
I0
tbS'84176'
tRp3024
ag3
(g4
(S'S11'
I0
I1
tRp3025
(I3
S'|'
NNNI11
I1
I0
tbS'Cd0JH1AreDw'
tRp3026
ag3
(g4
(S'S6'
I0
I1
tRp3027
(I3
S'|'
NNNI6
I1
I0
tbS'291121'
tRp3028
ag3
(g4
(S'S11'
I0
I1
tRp3029
(I3
S'|'
NNNI11
I1
I0
tbS'ZRic9ygn9f8'
tRp3030
ag3
(g4
(S'S11'
I0
I1
tRp3031
(I3
S'|'
NNNI11
I1
I0
tbS'E_ocLuUw-1I'
tRp3032
ag3
(g4
(S'S11'
I0
I1
tRp3033
(I3
S'|'
NNNI11
I1
I0
tbS'eSHOcLD5T58'
tRp3034
ag3
(g4
(S'S11'
I0
I1
tRp3035
(I3
S'|'
NNNI11
I1
I0
tbS'vrgwwihTxVQ'
tRp3036
ag3
(g4
(S'S11'
I0
I1
tRp3037
(I3
S'|'
NNNI11
I1
I0
tbS'SrMN3rwvCsE'
tRp3038
ag3
(g4
(S'S11'
I0
I1
tRp3039
(I3
S'|'
NNNI11
I1
I0
tbS'PJlDO21zl88'
tRp3040
ag3
(g4
(S'S11'
I0
I1
tRp3041
(I3
S'|'
NNNI11
I1
I0
tbS'1o8Gy4J6WSs'
tRp3042
ag3
(g4
(S'S6'
I0
I1
tRp3043
(I3
S'|'
NNNI6
I1
I0
tbS'222116'
tRp3044
ag3
(g4
(S'S11'
I0
I1
tRp3045
(I3
S'|'
NNNI11
I1
I0
tbS'vbVLgaP5IYU'
tRp3046
ag3
(g4
(S'S11'
I0
I1
tRp3047
(I3
S'|'
NNNI11
I1
I0
tbS'Wx9nThz5z_Y'
tRp3048
ag3
(g4
(S'S6'
I0
I1
tRp3049
(I3
S'|'
NNNI6
I1
I0
tbS'255338'
tRp3050
ag3
(g4
(S'S11'
I0
I1
tRp3051
(I3
S'|'
NNNI11
I1
I0
tbS'mW8eL4e7Wrg'
tRp3052
ag3
(g4
(S'S11'
I0
I1
tRp3053
(I3
S'|'
NNNI11
I1
I0
tbS'RdOc70IrjJo'
tRp3054
ag3
(g4
(S'S11'
I0
I1
tRp3055
(I3
S'|'
NNNI11
I1
I0
tbS'uxHBEfIhY-E'
tRp3056
ag3
(g4
(S'S11'
I0
I1
tRp3057
(I3
S'|'
NNNI11
I1
I0
tbS'Gljee9uq_Rc'
tRp3058
ag3
(g4
(S'S6'
I0
I1
tRp3059
(I3
S'|'
NNNI6
I1
I0
tbS'275620'
tRp3060
ag3
(g4
(S'S11'
I0
I1
tRp3061
(I3
S'|'
NNNI11
I1
I0
tbS'qszy_WSRFUM'
tRp3062
ag3
(g4
(S'S11'
I0
I1
tRp3063
(I3
S'|'
NNNI11
I1
I0
tbS'lpF-yBYou0s'
tRp3064
ag3
(g4
(S'S11'
I0
I1
tRp3065
(I3
S'|'
NNNI11
I1
I0
tbS'4lKz4xyCmkk'
tRp3066
ag3
(g4
(S'S11'
I0
I1
tRp3067
(I3
S'|'
NNNI11
I1
I0
tbS'xw-Blnej8EA'
tRp3068
ag3
(g4
(S'S6'
I0
I1
tRp3069
(I3
S'|'
NNNI6
I1
I0
tbS'367506'
tRp3070
ag3
(g4
(S'S11'
I0
I1
tRp3071
(I3
S'|'
NNNI11
I1
I0
tbS'-lqc32Zpr7M'
tRp3072
ag3
(g4
(S'S11'
I0
I1
tRp3073
(I3
S'|'
NNNI11
I1
I0
tbS'bhFK-xy76U4'
tRp3074
ag3
(g4
(S'S11'
I0
I1
tRp3075
(I3
S'|'
NNNI11
I1
I0
tbS'A0aE2Gzym-M'
tRp3076
ag3
(g4
(S'S5'
I0
I1
tRp3077
(I3
S'|'
NNNI5
I1
I0
tbS'90172'
tRp3078
ag3
(g4
(S'S11'
I0
I1
tRp3079
(I3
S'|'
NNNI11
I1
I0
tbS'eTn2P4wmFr4'
tRp3080
ag3
(g4
(S'S11'
I0
I1
tRp3081
(I3
S'|'
NNNI11
I1
I0
tbS'-a55Q6RWvTA'
tRp3082
ag3
(g4
(S'S11'
I0
I1
tRp3083
(I3
S'|'
NNNI11
I1
I0
tbS'ICeSewdyf34'
tRp3084
ag3
(g4
(S'S11'
I0
I1
tRp3085
(I3
S'|'
NNNI11
I1
I0
tbS'XwOdPYlyqXA'
tRp3086
ag3
(g4
(S'S11'
I0
I1
tRp3087
(I3
S'|'
NNNI11
I1
I0
tbS'tnhRxo-g3Xw'
tRp3088
ag3
(g4
(S'S11'
I0
I1
tRp3089
(I3
S'|'
NNNI11
I1
I0
tbS'ky7Q5onqxGw'
tRp3090
ag3
(g4
(S'S11'
I0
I1
tRp3091
(I3
S'|'
NNNI11
I1
I0
tbS'b_SffSbPVJM'
tRp3092
ag3
(g4
(S'S11'
I0
I1
tRp3093
(I3
S'|'
NNNI11
I1
I0
tbS'ctMCSUT2LlQ'
tRp3094
ag3
(g4
(S'S6'
I0
I1
tRp3095
(I3
S'|'
NNNI6
I1
I0
tbS'126542'
tRp3096
ag3
(g4
(S'S11'
I0
I1
tRp3097
(I3
S'|'
NNNI11
I1
I0
tbS'kU6YY2z7z0I'
tRp3098
ag3
(g4
(S'S11'
I0
I1
tRp3099
(I3
S'|'
NNNI11
I1
I0
tbS'vlnKSMw5v1o'
tRp3100
ag3
(g4
(S'S6'
I0
I1
tRp3101
(I3
S'|'
NNNI6
I1
I0
tbS'290088'
tRp3102
ag3
(g4
(S'S11'
I0
I1
tRp3103
(I3
S'|'
NNNI11
I1
I0
tbS'ShgrdU9WAJE'
tRp3104
ag3
(g4
(S'S11'
I0
I1
tRp3105
(I3
S'|'
NNNI11
I1
I0
tbS'4HAC00EAdno'
tRp3106
ag3
(g4
(S'S11'
I0
I1
tRp3107
(I3
S'|'
NNNI11
I1
I0
tbS'EoC83JhkCAw'
tRp3108
ag3
(g4
(S'S11'
I0
I1
tRp3109
(I3
S'|'
NNNI11
I1
I0
tbS'1olbQVO_C-8'
tRp3110
ag3
(g4
(S'S11'
I0
I1
tRp3111
(I3
S'|'
NNNI11
I1
I0
tbS'fB816aeHRFk'
tRp3112
ag3
(g4
(S'S11'
I0
I1
tRp3113
(I3
S'|'
NNNI11
I1
I0
tbS'v2DFe9X-jCY'
tRp3114
ag3
(g4
(S'S11'
I0
I1
tRp3115
(I3
S'|'
NNNI11
I1
I0
tbS'hp3nsb_eIc0'
tRp3116
ag3
(g4
(S'S11'
I0
I1
tRp3117
(I3
S'|'
NNNI11
I1
I0
tbS'vNID-RVhWcQ'
tRp3118
ag3
(g4
(S'S11'
I0
I1
tRp3119
(I3
S'|'
NNNI11
I1
I0
tbS'K7FiMf-Dmwo'
tRp3120
ag3
(g4
(S'S5'
I0
I1
tRp3121
(I3
S'|'
NNNI5
I1
I0
tbS'29044'
tRp3122
ag3
(g4
(S'S11'
I0
I1
tRp3123
(I3
S'|'
NNNI11
I1
I0
tbS'oO61Ma17tRA'
tRp3124
ag3
(g4
(S'S11'
I0
I1
tRp3125
(I3
S'|'
NNNI11
I1
I0
tbS'3OMgvtWNHp4'
tRp3126
ag3
(g4
(S'S11'
I0
I1
tRp3127
(I3
S'|'
NNNI11
I1
I0
tbS'xvnFF0FiyS4'
tRp3128
ag3
(g4
(S'S11'
I0
I1
tRp3129
(I3
S'|'
NNNI11
I1
I0
tbS'GtRxTvuF6J0'
tRp3130
ag3
(g4
(S'S11'
I0
I1
tRp3131
(I3
S'|'
NNNI11
I1
I0
tbS'vx8j_4DMqh4'
tRp3132
ag3
(g4
(S'S11'
I0
I1
tRp3133
(I3
S'|'
NNNI11
I1
I0
tbS'_XWUKMkxa-Q'
tRp3134
ag3
(g4
(S'S11'
I0
I1
tRp3135
(I3
S'|'
NNNI11
I1
I0
tbS'vRhj2bLo1ho'
tRp3136
ag3
(g4
(S'S11'
I0
I1
tRp3137
(I3
S'|'
NNNI11
I1
I0
tbS'TfBVq9oWBmM'
tRp3138
ag3
(g4
(S'S6'
I0
I1
tRp3139
(I3
S'|'
NNNI6
I1
I0
tbS'257771'
tRp3140
ag3
(g4
(S'S11'
I0
I1
tRp3141
(I3
S'|'
NNNI11
I1
I0
tbS'J6zbBfzW7a0'
tRp3142
ag3
(g4
(S'S11'
I0
I1
tRp3143
(I3
S'|'
NNNI11
I1
I0
tbS'6xvVFYR5di0'
tRp3144
ag3
(g4
(S'S11'
I0
I1
tRp3145
(I3
S'|'
NNNI11
I1
I0
tbS'ooGB4BLK9PM'
tRp3146
ag3
(g4
(S'S11'
I0
I1
tRp3147
(I3
S'|'
NNNI11
I1
I0
tbS'APYv5s4ucd0'
tRp3148
ag3
(g4
(S'S6'
I0
I1
tRp3149
(I3
S'|'
NNNI6
I1
I0
tbS'241638'
tRp3150
ag3
(g4
(S'S11'
I0
I1
tRp3151
(I3
S'|'
NNNI11
I1
I0
tbS'MhojeOmmjC8'
tRp3152
ag3
(g4
(S'S11'
I0
I1
tRp3153
(I3
S'|'
NNNI11
I1
I0
tbS'esnOE1LefKA'
tRp3154
ag3
(g4
(S'S11'
I0
I1
tRp3155
(I3
S'|'
NNNI11
I1
I0
tbS'wEs7pJH2mqQ'
tRp3156
ag3
(g4
(S'S11'
I0
I1
tRp3157
(I3
S'|'
NNNI11
I1
I0
tbS'6IUj6jyoTl0'
tRp3158
ag3
(g4
(S'S6'
I0
I1
tRp3159
(I3
S'|'
NNNI6
I1
I0
tbS'367576'
tRp3160
ag3
(g4
(S'S11'
I0
I1
tRp3161
(I3
S'|'
NNNI11
I1
I0
tbS'wb7CfuiIZFQ'
tRp3162
ag3
(g4
(S'S11'
I0
I1
tRp3163
(I3
S'|'
NNNI11
I1
I0
tbS'xlNDpmKgSIc'
tRp3164
ag3
(g4
(S'S11'
I0
I1
tRp3165
(I3
S'|'
NNNI11
I1
I0
tbS'UkqTwAuA8jI'
tRp3166
ag3
(g4
(S'S11'
I0
I1
tRp3167
(I3
S'|'
NNNI11
I1
I0
tbS'xPN38lYBQv4'
tRp3168
ag3
(g4
(S'S11'
I0
I1
tRp3169
(I3
S'|'
NNNI11
I1
I0
tbS'xAApNMTj3as'
tRp3170
ag3
(g4
(S'S11'
I0
I1
tRp3171
(I3
S'|'
NNNI11
I1
I0
tbS'TbZPa_keawc'
tRp3172
ag3
(g4
(S'S6'
I0
I1
tRp3173
(I3
S'|'
NNNI6
I1
I0
tbS'229967'
tRp3174
ag3
(g4
(S'S11'
I0
I1
tRp3175
(I3
S'|'
NNNI11
I1
I0
tbS'SmftC-VAfYQ'
tRp3176
ag3
(g4
(S'S11'
I0
I1
tRp3177
(I3
S'|'
NNNI11
I1
I0
tbS'wXuBJvzeC1Q'
tRp3178
ag3
(g4
(S'S11'
I0
I1
tRp3179
(I3
S'|'
NNNI11
I1
I0
tbS'OcqJx_cRc3Y'
tRp3180
ag3
(g4
(S'S11'
I0
I1
tRp3181
(I3
S'|'
NNNI11
I1
I0
tbS'icIS9VfbzMw'
tRp3182
ag3
(g4
(S'S11'
I0
I1
tRp3183
(I3
S'|'
NNNI11
I1
I0
tbS'tL8RzwWSmAE'
tRp3184
ag3
(g4
(S'S5'
I0
I1
tRp3185
(I3
S'|'
NNNI5
I1
I0
tbS'27798'
tRp3186
ag3
(g4
(S'S11'
I0
I1
tRp3187
(I3
S'|'
NNNI11
I1
I0
tbS'xaSf1d13WoY'
tRp3188
ag3
(g4
(S'S11'
I0
I1
tRp3189
(I3
S'|'
NNNI11
I1
I0
tbS'S_ISgjJR1bc'
tRp3190
ag3
(g4
(S'S6'
I0
I1
tRp3191
(I3
S'|'
NNNI6
I1
I0
tbS'234053'
tRp3192
ag3
(g4
(S'S11'
I0
I1
tRp3193
(I3
S'|'
NNNI11
I1
I0
tbS'N_dNuV-4iAo'
tRp3194
ag3
(g4
(S'S11'
I0
I1
tRp3195
(I3
S'|'
NNNI11
I1
I0
tbS'YB9EUgrzCCo'
tRp3196
ag3
(g4
(S'S11'
I0
I1
tRp3197
(I3
S'|'
NNNI11
I1
I0
tbS'UF9OlX-QNHU'
tRp3198
ag3
(g4
(S'S11'
I0
I1
tRp3199
(I3
S'|'
NNNI11
I1
I0
tbS'xiRUWSUrGSg'
tRp3200
ag3
(g4
(S'S11'
I0
I1
tRp3201
(I3
S'|'
NNNI11
I1
I0
tbS'LUf9vbe0TcQ'
tRp3202
ag3
(g4
(S'S6'
I0
I1
tRp3203
(I3
S'|'
NNNI6
I1
I0
tbS'251839'
tRp3204
ag3
(g4
(S'S6'
I0
I1
tRp3205
(I3
S'|'
NNNI6
I1
I0
tbS'221740'
tRp3206
ag3
(g4
(S'S5'
I0
I1
tRp3207
(I3
S'|'
NNNI5
I1
I0
tbS'74184'
tRp3208
ag3
(g4
(S'S11'
I0
I1
tRp3209
(I3
S'|'
NNNI11
I1
I0
tbS'p5LEk2u8tXk'
tRp3210
ag3
(g4
(S'S11'
I0
I1
tRp3211
(I3
S'|'
NNNI11
I1
I0
tbS'VybXjsmsjAY'
tRp3212
ag3
(g4
(S'S11'
I0
I1
tRp3213
(I3
S'|'
NNNI11
I1
I0
tbS'o1cRmT9qnOc'
tRp3214
ag3
(g4
(S'S11'
I0
I1
tRp3215
(I3
S'|'
NNNI11
I1
I0
tbS'dCDAcBR505Q'
tRp3216
ag3
(g4
(S'S11'
I0
I1
tRp3217
(I3
S'|'
NNNI11
I1
I0
tbS'9Un1O2ypJmI'
tRp3218
ag3
(g4
(S'S11'
I0
I1
tRp3219
(I3
S'|'
NNNI11
I1
I0
tbS'GUffC7vu9zA'
tRp3220
ag3
(g4
(S'S11'
I0
I1
tRp3221
(I3
S'|'
NNNI11
I1
I0
tbS'O_fTDhCtAhw'
tRp3222
ag3
(g4
(S'S6'
I0
I1
tRp3223
(I3
S'|'
NNNI6
I1
I0
tbS'206051'
tRp3224
ag3
(g4
(S'S11'
I0
I1
tRp3225
(I3
S'|'
NNNI11
I1
I0
tbS'3J3Thmd_vks'
tRp3226
ag3
(g4
(S'S11'
I0
I1
tRp3227
(I3
S'|'
NNNI11
I1
I0
tbS'vRydHjRzDX0'
tRp3228
ag3
(g4
(S'S11'
I0
I1
tRp3229
(I3
S'|'
NNNI11
I1
I0
tbS'E_oqbJatW3E'
tRp3230
ag3
(g4
(S'S11'
I0
I1
tRp3231
(I3
S'|'
NNNI11
I1
I0
tbS'vA68fTqDars'
tRp3232
ag3
(g4
(S'S11'
I0
I1
tRp3233
(I3
S'|'
NNNI11
I1
I0
tbS'DgO5O-oDeX8'
tRp3234
ag3
(g4
(S'S11'
I0
I1
tRp3235
(I3
S'|'
NNNI11
I1
I0
tbS'YQanVofsHoE'
tRp3236
ag3
(g4
(S'S11'
I0
I1
tRp3237
(I3
S'|'
NNNI11
I1
I0
tbS'BdqoZ5qpz0E'
tRp3238
ag3
(g4
(S'S5'
I0
I1
tRp3239
(I3
S'|'
NNNI5
I1
I0
tbS'51224'
tRp3240
ag3
(g4
(S'S11'
I0
I1
tRp3241
(I3
S'|'
NNNI11
I1
I0
tbS'6aoTjlvo0js'
tRp3242
ag3
(g4
(S'S11'
I0
I1
tRp3243
(I3
S'|'
NNNI11
I1
I0
tbS'C03473pYcRM'
tRp3244
ag3
(g4
(S'S11'
I0
I1
tRp3245
(I3
S'|'
NNNI11
I1
I0
tbS'xu53lk4dhSc'
tRp3246
ag3
(g4
(S'S11'
I0
I1
tRp3247
(I3
S'|'
NNNI11
I1
I0
tbS'ZQaGGpcIPHM'
tRp3248
ag3
(g4
(S'S11'
I0
I1
tRp3249
(I3
S'|'
NNNI11
I1
I0
tbS'3lkn8MS3n8Q'
tRp3250
ag3
(g4
(S'S11'
I0
I1
tRp3251
(I3
S'|'
NNNI11
I1
I0
tbS'uea5xJZygsc'
tRp3252
ag3
(g4
(S'S6'
I0
I1
tRp3253
(I3
S'|'
NNNI6
I1
I0
tbS'224869'
tRp3254
ag3
(g4
(S'S11'
I0
I1
tRp3255
(I3
S'|'
NNNI11
I1
I0
tbS'A4dzxgHDhF0'
tRp3256
ag3
(g4
(S'S11'
I0
I1
tRp3257
(I3
S'|'
NNNI11
I1
I0
tbS'bZ2ytqPtyK4'
tRp3258
ag3
(g4
(S'S11'
I0
I1
tRp3259
(I3
S'|'
NNNI11
I1
I0
tbS'WGfGxoI05ew'
tRp3260
ag3
(g4
(S'S11'
I0
I1
tRp3261
(I3
S'|'
NNNI11
I1
I0
tbS'CzstrpOTtgo'
tRp3262
ag3
(g4
(S'S11'
I0
I1
tRp3263
(I3
S'|'
NNNI11
I1
I0
tbS'jjb1cWmkhI8'
tRp3264
ag3
(g4
(S'S11'
I0
I1
tRp3265
(I3
S'|'
NNNI11
I1
I0
tbS'WJ2QF4Kw9Y8'
tRp3266
ag3
(g4
(S'S11'
I0
I1
tRp3267
(I3
S'|'
NNNI11
I1
I0
tbS'mn8_HvzbN5c'
tRp3268
ag3
(g4
(S'S5'
I0
I1
tRp3269
(I3
S'|'
NNNI5
I1
I0
tbS'88119'
tRp3270
ag3
(g4
(S'S11'
I0
I1
tRp3271
(I3
S'|'
NNNI11
I1
I0
tbS'HOCsiS0pmf0'
tRp3272
ag3
(g4
(S'S11'
I0
I1
tRp3273
(I3
S'|'
NNNI11
I1
I0
tbS'5F-KEGK9eXo'
tRp3274
ag3
(g4
(S'S11'
I0
I1
tRp3275
(I3
S'|'
NNNI11
I1
I0
tbS'xXGEkDhu94E'
tRp3276
ag3
(g4
(S'S11'
I0
I1
tRp3277
(I3
S'|'
NNNI11
I1
I0
tbS'qJBQH14qtHc'
tRp3278
ag3
(g4
(S'S11'
I0
I1
tRp3279
(I3
S'|'
NNNI11
I1
I0
tbS'4Q95Lg3Icho'
tRp3280
ag3
(g4
(S'S11'
I0
I1
tRp3281
(I3
S'|'
NNNI11
I1
I0
tbS'pzUplbeH_fg'
tRp3282
ag3
(g4
(S'S11'
I0
I1
tRp3283
(I3
S'|'
NNNI11
I1
I0
tbS'dH0FmwvOzs0'
tRp3284
ag3
(g4
(S'S11'
I0
I1
tRp3285
(I3
S'|'
NNNI11
I1
I0
tbS'gLdRUsLw4CA'
tRp3286
ag3
(g4
(S'S11'
I0
I1
tRp3287
(I3
S'|'
NNNI11
I1
I0
tbS'kj63uF0RhW8'
tRp3288
ag3
(g4
(S'S11'
I0
I1
tRp3289
(I3
S'|'
NNNI11
I1
I0
tbS'4kF0U8kIMp4'
tRp3290
ag3
(g4
(S'S11'
I0
I1
tRp3291
(I3
S'|'
NNNI11
I1
I0
tbS'gr9YU-UTJzQ'
tRp3292
ag3
(g4
(S'S11'
I0
I1
tRp3293
(I3
S'|'
NNNI11
I1
I0
tbS'0EphpADwdPg'
tRp3294
ag3
(g4
(S'S11'
I0
I1
tRp3295
(I3
S'|'
NNNI11
I1
I0
tbS'j4MpQ6CKoDE'
tRp3296
ag3
(g4
(S'S6'
I0
I1
tRp3297
(I3
S'|'
NNNI6
I1
I0
tbS'134252'
tRp3298
ag3
(g4
(S'S11'
I0
I1
tRp3299
(I3
S'|'
NNNI11
I1
I0
tbS'xfeASyC6PPg'
tRp3300
ag3
(g4
(S'S11'
I0
I1
tRp3301
(I3
S'|'
NNNI11
I1
I0
tbS'Emi9cw9xa00'
tRp3302
ag3
(g4
(S'S5'
I0
I1
tRp3303
(I3
S'|'
NNNI5
I1
I0
tbS'81668'
tRp3304
ag3
(g4
(S'S11'
I0
I1
tRp3305
(I3
S'|'
NNNI11
I1
I0
tbS'sRMdbZVjhis'
tRp3306
ag3
(g4
(S'S11'
I0
I1
tRp3307
(I3
S'|'
NNNI11
I1
I0
tbS'j6R1NTrosuM'
tRp3308
ag3
(g4
(S'S11'
I0
I1
tRp3309
(I3
S'|'
NNNI11
I1
I0
tbS'9VZ4cpoTFbo'
tRp3310
ag3
(g4
(S'S11'
I0
I1
tRp3311
(I3
S'|'
NNNI11
I1
I0
tbS'Bo5IDtP8_Fk'
tRp3312
ag3
(g4
(S'S11'
I0
I1
tRp3313
(I3
S'|'
NNNI11
I1
I0
tbS'7xiu1tAJ2d8'
tRp3314
ag3
(g4
(S'S5'
I0
I1
tRp3315
(I3
S'|'
NNNI5
I1
I0
tbS'46604'
tRp3316
ag3
(g4
(S'S11'
I0
I1
tRp3317
(I3
S'|'
NNNI11
I1
I0
tbS'OUjzDchhkIA'
tRp3318
ag3
(g4
(S'S6'
I0
I1
tRp3319
(I3
S'|'
NNNI6
I1
I0
tbS'244623'
tRp3320
ag3
(g4
(S'S11'
I0
I1
tRp3321
(I3
S'|'
NNNI11
I1
I0
tbS'pvlmYjQdRmA'
tRp3322
ag3
(g4
(S'S11'
I0
I1
tRp3323
(I3
S'|'
NNNI11
I1
I0
tbS'nz2vkMyqfeE'
tRp3324
ag3
(g4
(S'S11'
I0
I1
tRp3325
(I3
S'|'
NNNI11
I1
I0
tbS'OOh1_ffKOKk'
tRp3326
ag3
(g4
(S'S11'
I0
I1
tRp3327
(I3
S'|'
NNNI11
I1
I0
tbS'SzJf6viBWBg'
tRp3328
ag3
(g4
(S'S11'
I0
I1
tRp3329
(I3
S'|'
NNNI11
I1
I0
tbS'2c6Gb73nx4E'
tRp3330
ag3
(g4
(S'S11'
I0
I1
tRp3331
(I3
S'|'
NNNI11
I1
I0
tbS'OxyQSJMvWBo'
tRp3332
ag3
(g4
(S'S11'
I0
I1
tRp3333
(I3
S'|'
NNNI11
I1
I0
tbS'vqBRkjHWjXM'
tRp3334
ag3
(g4
(S'S11'
I0
I1
tRp3335
(I3
S'|'
NNNI11
I1
I0
tbS'fOxg1NstCHA'
tRp3336
ag3
(g4
(S'S11'
I0
I1
tRp3337
(I3
S'|'
NNNI11
I1
I0
tbS'Q5uYByRyswI'
tRp3338
ag3
(g4
(S'S11'
I0
I1
tRp3339
(I3
S'|'
NNNI11
I1
I0
tbS'4lro65JwQdc'
tRp3340
ag3
(g4
(S'S11'
I0
I1
tRp3341
(I3
S'|'
NNNI11
I1
I0
tbS'DiOw-w5LDJ0'
tRp3342
ag3
(g4
(S'S11'
I0
I1
tRp3343
(I3
S'|'
NNNI11
I1
I0
tbS'PybuzkS31J4'
tRp3344
ag3
(g4
(S'S11'
I0
I1
tRp3345
(I3
S'|'
NNNI11
I1
I0
tbS'1tuMFJnlXJc'
tRp3346
ag3
(g4
(S'S11'
I0
I1
tRp3347
(I3
S'|'
NNNI11
I1
I0
tbS'pYUTSG9frAk'
tRp3348
ag3
(g4
(S'S11'
I0
I1
tRp3349
(I3
S'|'
NNNI11
I1
I0
tbS'vwUBtNvjrU4'
tRp3350
ag3
(g4
(S'S11'
I0
I1
tRp3351
(I3
S'|'
NNNI11
I1
I0
tbS'Uiq0lf9ibF8'
tRp3352
ag3
(g4
(S'S11'
I0
I1
tRp3353
(I3
S'|'
NNNI11
I1
I0
tbS'MNXBOeiPhec'
tRp3354
ag3
(g4
(S'S11'
I0
I1
tRp3355
(I3
S'|'
NNNI11
I1
I0
tbS'JMb18N7lQ0A'
tRp3356
ag3
(g4
(S'S11'
I0
I1
tRp3357
(I3
S'|'
NNNI11
I1
I0
tbS'EGA6iulTr00'
tRp3358
ag3
(g4
(S'S11'
I0
I1
tRp3359
(I3
S'|'
NNNI11
I1
I0
tbS'kPch8YhNfPE'
tRp3360
ag3
(g4
(S'S11'
I0
I1
tRp3361
(I3
S'|'
NNNI11
I1
I0
tbS'taGs3-SMoYM'
tRp3362
ag3
(g4
(S'S11'
I0
I1
tRp3363
(I3
S'|'
NNNI11
I1
I0
tbS'uTWeng4h5eM'
tRp3364
ag3
(g4
(S'S11'
I0
I1
tRp3365
(I3
S'|'
NNNI11
I1
I0
tbS'kyPepNmxaj8'
tRp3366
ag3
(g4
(S'S11'
I0
I1
tRp3367
(I3
S'|'
NNNI11
I1
I0
tbS'PmemTgQHagk'
tRp3368
ag3
(g4
(S'S11'
I0
I1
tRp3369
(I3
S'|'
NNNI11
I1
I0
tbS'jnG9zog4NCs'
tRp3370
ag3
(g4
(S'S6'
I0
I1
tRp3371
(I3
S'|'
NNNI6
I1
I0
tbS'112604'
tRp3372
ag3
(g4
(S'S6'
I0
I1
tRp3373
(I3
S'|'
NNNI6
I1
I0
tbS'202431'
tRp3374
ag3
(g4
(S'S11'
I0
I1
tRp3375
(I3
S'|'
NNNI11
I1
I0
tbS'6-0bcijTR8k'
tRp3376
ag3
(g4
(S'S5'
I0
I1
tRp3377
(I3
S'|'
NNNI5
I1
I0
tbS'97992'
tRp3378
ag3
(g4
(S'S11'
I0
I1
tRp3379
(I3
S'|'
NNNI11
I1
I0
tbS'aE-X_QdDaqQ'
tRp3380
ag3
(g4
(S'S11'
I0
I1
tRp3381
(I3
S'|'
NNNI11
I1
I0
tbS'aiUq5xksJy0'
tRp3382
ag3
(g4
(S'S11'
I0
I1
tRp3383
(I3
S'|'
NNNI11
I1
I0
tbS'nw6Kf3AtCz4'
tRp3384
ag3
(g4
(S'S11'
I0
I1
tRp3385
(I3
S'|'
NNNI11
I1
I0
tbS'88S1BjwMfdw'
tRp3386
ag3
(g4
(S'S11'
I0
I1
tRp3387
(I3
S'|'
NNNI11
I1
I0
tbS'rC7qKZMKa0U'
tRp3388
ag3
(g4
(S'S11'
I0
I1
tRp3389
(I3
S'|'
NNNI11
I1
I0
tbS'Xo6-V2RlWss'
tRp3390
ag3
(g4
(S'S11'
I0
I1
tRp3391
(I3
S'|'
NNNI11
I1
I0
tbS'ku-dtUqCm2o'
tRp3392
ag3
(g4
(S'S11'
I0
I1
tRp3393
(I3
S'|'
NNNI11
I1
I0
tbS'HxyfY7hsjOg'
tRp3394
ag3
(g4
(S'S11'
I0
I1
tRp3395
(I3
S'|'
NNNI11
I1
I0
tbS'15Wu4U2VPLw'
tRp3396
ag3
(g4
(S'S11'
I0
I1
tRp3397
(I3
S'|'
NNNI11
I1
I0
tbS'-THoVjtIkeU'
tRp3398
ag3
(g4
(S'S11'
I0
I1
tRp3399
(I3
S'|'
NNNI11
I1
I0
tbS'8YsIvz4qnk4'
tRp3400
ag3
(g4
(S'S11'
I0
I1
tRp3401
(I3
S'|'
NNNI11
I1
I0
tbS's2oX3zxWuEI'
tRp3402
ag3
(g4
(S'S11'
I0
I1
tRp3403
(I3
S'|'
NNNI11
I1
I0
tbS'jlW4Iep4mmE'
tRp3404
ag3
(g4
(S'S11'
I0
I1
tRp3405
(I3
S'|'
NNNI11
I1
I0
tbS'VugBIVwSmaI'
tRp3406
ag3
(g4
(S'S11'
I0
I1
tRp3407
(I3
S'|'
NNNI11
I1
I0
tbS'SNBqe_JpZC4'
tRp3408
ag3
(g4
(S'S11'
I0
I1
tRp3409
(I3
S'|'
NNNI11
I1
I0
tbS'cRFiXLzcCOA'
tRp3410
ag3
(g4
(S'S11'
I0
I1
tRp3411
(I3
S'|'
NNNI11
I1
I0
tbS'dcUlt6zk_S0'
tRp3412
ag3
(g4
(S'S11'
I0
I1
tRp3413
(I3
S'|'
NNNI11
I1
I0
tbS'A6R6J8SJtBc'
tRp3414
ag3
(g4
(S'S6'
I0
I1
tRp3415
(I3
S'|'
NNNI6
I1
I0
tbS'243341'
tRp3416
ag3
(g4
(S'S5'
I0
I1
tRp3417
(I3
S'|'
NNNI5
I1
I0
tbS'94983'
tRp3418
ag3
(g4
(S'S11'
I0
I1
tRp3419
(I3
S'|'
NNNI11
I1
I0
tbS'CBYQDIqucxE'
tRp3420
ag3
(g4
(S'S11'
I0
I1
tRp3421
(I3
S'|'
NNNI11
I1
I0
tbS'7SsmaZZ7mz0'
tRp3422
ag3
(g4
(S'S11'
I0
I1
tRp3423
(I3
S'|'
NNNI11
I1
I0
tbS'6zjv1TLqfF0'
tRp3424
ag3
(g4
(S'S11'
I0
I1
tRp3425
(I3
S'|'
NNNI11
I1
I0
tbS'ak7N0BqMluI'
tRp3426
ag3
(g4
(S'S11'
I0
I1
tRp3427
(I3
S'|'
NNNI11
I1
I0
tbS'Kep_mLLXsqk'
tRp3428
ag3
(g4
(S'S11'
I0
I1
tRp3429
(I3
S'|'
NNNI11
I1
I0
tbS'gjGL6YY6oMs'
tRp3430
ag3
(g4
(S'S11'
I0
I1
tRp3431
(I3
S'|'
NNNI11
I1
I0
tbS'faMq0C_wTpU'
tRp3432
ag3
(g4
(S'S11'
I0
I1
tRp3433
(I3
S'|'
NNNI11
I1
I0
tbS'mgovo8VYtvk'
tRp3434
ag3
(g4
(S'S6'
I0
I1
tRp3435
(I3
S'|'
NNNI6
I1
I0
tbS'238100'
tRp3436
ag3
(g4
(S'S11'
I0
I1
tRp3437
(I3
S'|'
NNNI11
I1
I0
tbS'P35dyIit1yM'
tRp3438
ag3
(g4
(S'S11'
I0
I1
tRp3439
(I3
S'|'
NNNI11
I1
I0
tbS'FCMbWx2JpZ0'
tRp3440
ag3
(g4
(S'S5'
I0
I1
tRp3441
(I3
S'|'
NNNI5
I1
I0
tbS'72017'
tRp3442
ag3
(g4
(S'S11'
I0
I1
tRp3443
(I3
S'|'
NNNI11
I1
I0
tbS'cHrOisasWLU'
tRp3444
ag3
(g4
(S'S11'
I0
I1
tRp3445
(I3
S'|'
NNNI11
I1
I0
tbS'Ceu9AkIjuLY'
tRp3446
ag3
(g4
(S'S11'
I0
I1
tRp3447
(I3
S'|'
NNNI11
I1
I0
tbS'lWXjdWvB0VI'
tRp3448
ag3
(g4
(S'S11'
I0
I1
tRp3449
(I3
S'|'
NNNI11
I1
I0
tbS'fi7g4GoK-z4'
tRp3450
ag3
(g4
(S'S11'
I0
I1
tRp3451
(I3
S'|'
NNNI11
I1
I0
tbS'1A7dqFxx8wU'
tRp3452
ag3
(g4
(S'S11'
I0
I1
tRp3453
(I3
S'|'
NNNI11
I1
I0
tbS'96o9hxy64wI'
tRp3454
ag3
(g4
(S'S11'
I0
I1
tRp3455
(I3
S'|'
NNNI11
I1
I0
tbS'IsAtAzltJNM'
tRp3456
ag3
(g4
(S'S11'
I0
I1
tRp3457
(I3
S'|'
NNNI11
I1
I0
tbS'8qCNtqjygW8'
tRp3458
ag3
(g4
(S'S11'
I0
I1
tRp3459
(I3
S'|'
NNNI11
I1
I0
tbS'RXcI6PK37lM'
tRp3460
ag3
(g4
(S'S11'
I0
I1
tRp3461
(I3
S'|'
NNNI11
I1
I0
tbS'XQOUZhWI1B0'
tRp3462
ag3
(g4
(S'S11'
I0
I1
tRp3463
(I3
S'|'
NNNI11
I1
I0
tbS'9cxlcpbmrH0'
tRp3464
ag3
(g4
(S'S11'
I0
I1
tRp3465
(I3
S'|'
NNNI11
I1
I0
tbS'UtjenieM1Ak'
tRp3466
ag3
(g4
(S'S11'
I0
I1
tRp3467
(I3
S'|'
NNNI11
I1
I0
tbS'UeOIb6s0pVM'
tRp3468
ag3
(g4
(S'S11'
I0
I1
tRp3469
(I3
S'|'
NNNI11
I1
I0
tbS'pnSRLB6anIM'
tRp3470
ag3
(g4
(S'S6'
I0
I1
tRp3471
(I3
S'|'
NNNI6
I1
I0
tbS'213619'
tRp3472
ag3
(g4
(S'S11'
I0
I1
tRp3473
(I3
S'|'
NNNI11
I1
I0
tbS'G_M3lYn6hAA'
tRp3474
ag3
(g4
(S'S11'
I0
I1
tRp3475
(I3
S'|'
NNNI11
I1
I0
tbS'JP95Fby6qLE'
tRp3476
ag3
(g4
(S'S11'
I0
I1
tRp3477
(I3
S'|'
NNNI11
I1
I0
tbS'n7K5SpMrQt0'
tRp3478
ag3
(g4
(S'S11'
I0
I1
tRp3479
(I3
S'|'
NNNI11
I1
I0
tbS'GCOFujDHDx0'
tRp3480
ag3
(g4
(S'S11'
I0
I1
tRp3481
(I3
S'|'
NNNI11
I1
I0
tbS'ZtuTCuh9C1M'
tRp3482
ag3
(g4
(S'S11'
I0
I1
tRp3483
(I3
S'|'
NNNI11
I1
I0
tbS'1RxliidxXyQ'
tRp3484
ag3
(g4
(S'S11'
I0
I1
tRp3485
(I3
S'|'
NNNI11
I1
I0
tbS'v73dbqOUoXQ'
tRp3486
ag3
(g4
(S'S11'
I0
I1
tRp3487
(I3
S'|'
NNNI11
I1
I0
tbS'qpht9L3s9G4'
tRp3488
ag3
(g4
(S'S11'
I0
I1
tRp3489
(I3
S'|'
NNNI11
I1
I0
tbS'5HjbZAbB-Lg'
tRp3490
ag3
(g4
(S'S11'
I0
I1
tRp3491
(I3
S'|'
NNNI11
I1
I0
tbS'QOxIdbNwpx0'
tRp3492
ag3
(g4
(S'S11'
I0
I1
tRp3493
(I3
S'|'
NNNI11
I1
I0
tbS'OGXUtVG0Y9w'
tRp3494
ag3
(g4
(S'S11'
I0
I1
tRp3495
(I3
S'|'
NNNI11
I1
I0
tbS'76sN4tvbPGk'
tRp3496
ag3
(g4
(S'S11'
I0
I1
tRp3497
(I3
S'|'
NNNI11
I1
I0
tbS'GeSTiDe1hG0'
tRp3498
ag3
(g4
(S'S11'
I0
I1
tRp3499
(I3
S'|'
NNNI11
I1
I0
tbS'DhXBaBOB4E8'
tRp3500
ag3
(g4
(S'S5'
I0
I1
tRp3501
(I3
S'|'
NNNI5
I1
I0
tbS'55156'
tRp3502
ag3
(g4
(S'S11'
I0
I1
tRp3503
(I3
S'|'
NNNI11
I1
I0
tbS'LL02UFLfQKo'
tRp3504
ag3
(g4
(S'S11'
I0
I1
tRp3505
(I3
S'|'
NNNI11
I1
I0
tbS'oPvUDLhTrjI'
tRp3506
ag3
(g4
(S'S11'
I0
I1
tRp3507
(I3
S'|'
NNNI11
I1
I0
tbS'G8aL3bM39co'
tRp3508
ag3
(g4
(S'S11'
I0
I1
tRp3509
(I3
S'|'
NNNI11
I1
I0
tbS'DXQGngge7vU'
tRp3510
ag3
(g4
(S'S11'
I0
I1
tRp3511
(I3
S'|'
NNNI11
I1
I0
tbS'6G8JJ69aN6o'
tRp3512
ag3
(g4
(S'S11'
I0
I1
tRp3513
(I3
S'|'
NNNI11
I1
I0
tbS'gvjQ1XfMA_g'
tRp3514
ag3
(g4
(S'S11'
I0
I1
tRp3515
(I3
S'|'
NNNI11
I1
I0
tbS'7vJy1zbopJ8'
tRp3516
ag3
(g4
(S'S11'
I0
I1
tRp3517
(I3
S'|'
NNNI11
I1
I0
tbS'ySfHPyaDbqY'
tRp3518
ag3
(g4
(S'S11'
I0
I1
tRp3519
(I3
S'|'
NNNI11
I1
I0
tbS'xUz5cCA-oTo'
tRp3520
ag3
(g4
(S'S11'
I0
I1
tRp3521
(I3
S'|'
NNNI11
I1
I0
tbS'6hp1SGhVYfY'
tRp3522
ag3
(g4
(S'S11'
I0
I1
tRp3523
(I3
S'|'
NNNI11
I1
I0
tbS'b1Il3Nf6BrU'
tRp3524
ag3
(g4
(S'S11'
I0
I1
tRp3525
(I3
S'|'
NNNI11
I1
I0
tbS'QJCDZCllSYQ'
tRp3526
ag3
(g4
(S'S11'
I0
I1
tRp3527
(I3
S'|'
NNNI11
I1
I0
tbS'P0WaXnH37uI'
tRp3528
ag3
(g4
(S'S11'
I0
I1
tRp3529
(I3
S'|'
NNNI11
I1
I0
tbS'S0ecaAi_CJo'
tRp3530
ag3
(g4
(S'S11'
I0
I1
tRp3531
(I3
S'|'
NNNI11
I1
I0
tbS'wz3nVBPVgIA'
tRp3532
ag3
(g4
(S'S11'
I0
I1
tRp3533
(I3
S'|'
NNNI11
I1
I0
tbS'TBCjKGYBNIo'
tRp3534
ag3
(g4
(S'S11'
I0
I1
tRp3535
(I3
S'|'
NNNI11
I1
I0
tbS'wj4snKbUWZA'
tRp3536
ag3
(g4
(S'S11'
I0
I1
tRp3537
(I3
S'|'
NNNI11
I1
I0
tbS'AsrhHuCfvF4'
tRp3538
ag3
(g4
(S'S11'
I0
I1
tRp3539
(I3
S'|'
NNNI11
I1
I0
tbS'qJh6x4wmmh8'
tRp3540
ag3
(g4
(S'S11'
I0
I1
tRp3541
(I3
S'|'
NNNI11
I1
I0
tbS'6c7vAwDSVGc'
tRp3542
ag3
(g4
(S'S11'
I0
I1
tRp3543
(I3
S'|'
NNNI11
I1
I0
tbS'puum3vabpb4'
tRp3544
ag3
(g4
(S'S6'
I0
I1
tRp3545
(I3
S'|'
NNNI6
I1
I0
tbS'255852'
tRp3546
ag3
(g4
(S'S11'
I0
I1
tRp3547
(I3
S'|'
NNNI11
I1
I0
tbS'WANirpnKa4w'
tRp3548
ag3
(g4
(S'S11'
I0
I1
tRp3549
(I3
S'|'
NNNI11
I1
I0
tbS'mjQfQx2K__8'
tRp3550
ag3
(g4
(S'S6'
I0
I1
tRp3551
(I3
S'|'
NNNI6
I1
I0
tbS'207812'
tRp3552
ag3
(g4
(S'S11'
I0
I1
tRp3553
(I3
S'|'
NNNI11
I1
I0
tbS'mjYeEikLR8I'
tRp3554
ag3
(g4
(S'S11'
I0
I1
tRp3555
(I3
S'|'
NNNI11
I1
I0
tbS'Y4izAQYtGEw'
tRp3556
ag3
(g4
(S'S11'
I0
I1
tRp3557
(I3
S'|'
NNNI11
I1
I0
tbS'wHQYmMZzyJY'
tRp3558
ag3
(g4
(S'S11'
I0
I1
tRp3559
(I3
S'|'
NNNI11
I1
I0
tbS'hyazktfsZew'
tRp3560
ag3
(g4
(S'S11'
I0
I1
tRp3561
(I3
S'|'
NNNI11
I1
I0
tbS'2qKajMu7Vhc'
tRp3562
ag3
(g4
(S'S11'
I0
I1
tRp3563
(I3
S'|'
NNNI11
I1
I0
tbS'lp9vkkimXqg'
tRp3564
ag3
(g4
(S'S11'
I0
I1
tRp3565
(I3
S'|'
NNNI11
I1
I0
tbS'JHW3nD6flgU'
tRp3566
ag3
(g4
(S'S11'
I0
I1
tRp3567
(I3
S'|'
NNNI11
I1
I0
tbS'll10nEjTvGE'
tRp3568
ag3
(g4
(S'S11'
I0
I1
tRp3569
(I3
S'|'
NNNI11
I1
I0
tbS'HhpziYYP2Vg'
tRp3570
ag3
(g4
(S'S5'
I0
I1
tRp3571
(I3
S'|'
NNNI5
I1
I0
tbS'46618'
tRp3572
ag3
(g4
(S'S11'
I0
I1
tRp3573
(I3
S'|'
NNNI11
I1
I0
tbS'5wpCKY2U1NE'
tRp3574
ag3
(g4
(S'S11'
I0
I1
tRp3575
(I3
S'|'
NNNI11
I1
I0
tbS'MWCNzYUCys0'
tRp3576
ag3
(g4
(S'S11'
I0
I1
tRp3577
(I3
S'|'
NNNI11
I1
I0
tbS'zg-ZIxVsBbQ'
tRp3578
ag3
(g4
(S'S11'
I0
I1
tRp3579
(I3
S'|'
NNNI11
I1
I0
tbS'YWjTWl0oNLk'
tRp3580
ag3
(g4
(S'S11'
I0
I1
tRp3581
(I3
S'|'
NNNI11
I1
I0
tbS'-UuX1xuaiiE'
tRp3582
ag3
(g4
(S'S11'
I0
I1
tRp3583
(I3
S'|'
NNNI11
I1
I0
tbS'1dWsw38VDjY'
tRp3584
ag3
(g4
(S'S11'
I0
I1
tRp3585
(I3
S'|'
NNNI11
I1
I0
tbS'yKdIZR5xfcc'
tRp3586
ag3
(g4
(S'S11'
I0
I1
tRp3587
(I3
S'|'
NNNI11
I1
I0
tbS'7pZPQbMKGkY'
tRp3588
ag3
(g4
(S'S11'
I0
I1
tRp3589
(I3
S'|'
NNNI11
I1
I0
tbS'48BD8qjClfE'
tRp3590
ag3
(g4
(S'S11'
I0
I1
tRp3591
(I3
S'|'
NNNI11
I1
I0
tbS'a5CSKvCAhbs'
tRp3592
ag3
(g4
(S'S11'
I0
I1
tRp3593
(I3
S'|'
NNNI11
I1
I0
tbS'y1gL_MuokI8'
tRp3594
ag3
(g4
(S'S11'
I0
I1
tRp3595
(I3
S'|'
NNNI11
I1
I0
tbS'5sDBK-lP8Pg'
tRp3596
ag3
(g4
(S'S11'
I0
I1
tRp3597
(I3
S'|'
NNNI11
I1
I0
tbS'nQ7txb1MtG0'
tRp3598
ag3
(g4
(S'S11'
I0
I1
tRp3599
(I3
S'|'
NNNI11
I1
I0
tbS'4Ry6M_ZfJQc'
tRp3600
ag3
(g4
(S'S6'
I0
I1
tRp3601
(I3
S'|'
NNNI6
I1
I0
tbS'240915'
tRp3602
ag3
(g4
(S'S5'
I0
I1
tRp3603
(I3
S'|'
NNNI5
I1
I0
tbS'69707'
tRp3604
ag3
(g4
(S'S11'
I0
I1
tRp3605
(I3
S'|'
NNNI11
I1
I0
tbS'1W38PnuWIkM'
tRp3606
ag3
(g4
(S'S11'
I0
I1
tRp3607
(I3
S'|'
NNNI11
I1
I0
tbS'juI9KoLA87A'
tRp3608
ag3
(g4
(S'S11'
I0
I1
tRp3609
(I3
S'|'
NNNI11
I1
I0
tbS'JcmqmLaL_MQ'
tRp3610
ag3
(g4
(S'S11'
I0
I1
tRp3611
(I3
S'|'
NNNI11
I1
I0
tbS'f47bnEUrOvA'
tRp3612
ag3
(g4
(S'S11'
I0
I1
tRp3613
(I3
S'|'
NNNI11
I1
I0
tbS'mkkoJ2iVbGs'
tRp3614
ag3
(g4
(S'S11'
I0
I1
tRp3615
(I3
S'|'
NNNI11
I1
I0
tbS'j9mRv472dq0'
tRp3616
ag3
(g4
(S'S11'
I0
I1
tRp3617
(I3
S'|'
NNNI11
I1
I0
tbS'Iz_PDdyXr-8'
tRp3618
ag3
(g4
(S'S11'
I0
I1
tRp3619
(I3
S'|'
NNNI11
I1
I0
tbS'aKPfbyW-Qxw'
tRp3620
ag3
(g4
(S'S11'
I0
I1
tRp3621
(I3
S'|'
NNNI11
I1
I0
tbS'F2M7WbPXRps'
tRp3622
ag3
(g4
(S'S11'
I0
I1
tRp3623
(I3
S'|'
NNNI11
I1
I0
tbS'srbrWyZRMCI'
tRp3624
ag3
(g4
(S'S11'
I0
I1
tRp3625
(I3
S'|'
NNNI11
I1
I0
tbS'Uc-0G7RRxoY'
tRp3626
ag3
(g4
(S'S11'
I0
I1
tRp3627
(I3
S'|'
NNNI11
I1
I0
tbS'jPGDFrQLD4I'
tRp3628
ag3
(g4
(S'S11'
I0
I1
tRp3629
(I3
S'|'
NNNI11
I1
I0
tbS'bQcJVJcpgAs'
tRp3630
ag3
(g4
(S'S11'
I0
I1
tRp3631
(I3
S'|'
NNNI11
I1
I0
tbS'Hkt_kncJGVM'
tRp3632
ag3
(g4
(S'S11'
I0
I1
tRp3633
(I3
S'|'
NNNI11
I1
I0
tbS'88oSn21TFcA'
tRp3634
ag3
(g4
(S'S11'
I0
I1
tRp3635
(I3
S'|'
NNNI11
I1
I0
tbS'N4WOBzpZtWM'
tRp3636
ag3
(g4
(S'S11'
I0
I1
tRp3637
(I3
S'|'
NNNI11
I1
I0
tbS'QP2CjKap818'
tRp3638
ag3
(g4
(S'S11'
I0
I1
tRp3639
(I3
S'|'
NNNI11
I1
I0
tbS'p4IeTRNcxc4'
tRp3640
ag3
(g4
(S'S11'
I0
I1
tRp3641
(I3
S'|'
NNNI11
I1
I0
tbS'Dq7V30WhOJQ'
tRp3642
ag3
(g4
(S'S5'
I0
I1
tRp3643
(I3
S'|'
NNNI5
I1
I0
tbS'56276'
tRp3644
ag3
(g4
(S'S11'
I0
I1
tRp3645
(I3
S'|'
NNNI11
I1
I0
tbS'wMggOhhVouA'
tRp3646
ag3
(g4
(S'S11'
I0
I1
tRp3647
(I3
S'|'
NNNI11
I1
I0
tbS'gFAOKuqpUq4'
tRp3648
ag3
(g4
(S'S11'
I0
I1
tRp3649
(I3
S'|'
NNNI11
I1
I0
tbS'6MYUY5tC2Us'
tRp3650
ag3
(g4
(S'S11'
I0
I1
tRp3651
(I3
S'|'
NNNI11
I1
I0
tbS'XblL7mcdDdg'
tRp3652
ag3
(g4
(S'S6'
I0
I1
tRp3653
(I3
S'|'
NNNI6
I1
I0
tbS'112903'
tRp3654
ag3
(g4
(S'S5'
I0
I1
tRp3655
(I3
S'|'
NNNI5
I1
I0
tbS'49358'
tRp3656
ag3
(g4
(S'S11'
I0
I1
tRp3657
(I3
S'|'
NNNI11
I1
I0
tbS'HjLpXXFoAQw'
tRp3658
ag3
(g4
(S'S11'
I0
I1
tRp3659
(I3
S'|'
NNNI11
I1
I0
tbS'5tV5rZZJDCE'
tRp3660
ag3
(g4
(S'S11'
I0
I1
tRp3661
(I3
S'|'
NNNI11
I1
I0
tbS'KJyz9fCt7Is'
tRp3662
ag3
(g4
(S'S11'
I0
I1
tRp3663
(I3
S'|'
NNNI11
I1
I0
tbS'UmB5c_QqUPs'
tRp3664
ag3
(g4
(S'S11'
I0
I1
tRp3665
(I3
S'|'
NNNI11
I1
I0
tbS'HQ9NnDQcxD4'
tRp3666
ag3
(g4
(S'S11'
I0
I1
tRp3667
(I3
S'|'
NNNI11
I1
I0
tbS'JGEEA_JVriE'
tRp3668
ag3
(g4
(S'S11'
I0
I1
tRp3669
(I3
S'|'
NNNI11
I1
I0
tbS'7CLe7PZtna4'
tRp3670
ag3
(g4
(S'S5'
I0
I1
tRp3671
(I3
S'|'
NNNI5
I1
I0
tbS'56006'
tRp3672
ag3
(g4
(S'S6'
I0
I1
tRp3673
(I3
S'|'
NNNI6
I1
I0
tbS'112169'
tRp3674
ag3
(g4
(S'S11'
I0
I1
tRp3675
(I3
S'|'
NNNI11
I1
I0
tbS'S2znq3iRPwE'
tRp3676
ag3
(g4
(S'S11'
I0
I1
tRp3677
(I3
S'|'
NNNI11
I1
I0
tbS'zuc7vUhZNfY'
tRp3678
ag3
(g4
(S'S6'
I0
I1
tRp3679
(I3
S'|'
NNNI6
I1
I0
tbS'233389'
tRp3680
ag3
(g4
(S'S11'
I0
I1
tRp3681
(I3
S'|'
NNNI11
I1
I0
tbS'SI39azgVUR8'
tRp3682
ag3
(g4
(S'S11'
I0
I1
tRp3683
(I3
S'|'
NNNI11
I1
I0
tbS'9tX18DNC74w'
tRp3684
ag3
(g4
(S'S11'
I0
I1
tRp3685
(I3
S'|'
NNNI11
I1
I0
tbS'BB_VwJSg3AI'
tRp3686
ag3
(g4
(S'S11'
I0
I1
tRp3687
(I3
S'|'
NNNI11
I1
I0
tbS'EULEL3QhKD0'
tRp3688
ag3
(g4
(S'S5'
I0
I1
tRp3689
(I3
S'|'
NNNI5
I1
I0
tbS'25271'
tRp3690
ag3
(g4
(S'S11'
I0
I1
tRp3691
(I3
S'|'
NNNI11
I1
I0
tbS'eJwZfdtlks8'
tRp3692
ag3
(g4
(S'S11'
I0
I1
tRp3693
(I3
S'|'
NNNI11
I1
I0
tbS'4iG0ffmnCOw'
tRp3694
ag3
(g4
(S'S11'
I0
I1
tRp3695
(I3
S'|'
NNNI11
I1
I0
tbS'BLFUj7_uy_0'
tRp3696
ag3
(g4
(S'S11'
I0
I1
tRp3697
(I3
S'|'
NNNI11
I1
I0
tbS'oANUXY3xXKM'
tRp3698
ag3
(g4
(S'S11'
I0
I1
tRp3699
(I3
S'|'
NNNI11
I1
I0
tbS'F59hwsm4Ld0'
tRp3700
ag3
(g4
(S'S5'
I0
I1
tRp3701
(I3
S'|'
NNNI5
I1
I0
tbS'33312'
tRp3702
ag3
(g4
(S'S11'
I0
I1
tRp3703
(I3
S'|'
NNNI11
I1
I0
tbS'EJT25p7JahU'
tRp3704
ag3
(g4
(S'S11'
I0
I1
tRp3705
(I3
S'|'
NNNI11
I1
I0
tbS'gZF-YNQHqwI'
tRp3706
ag3
(g4
(S'S11'
I0
I1
tRp3707
(I3
S'|'
NNNI11
I1
I0
tbS'guRD0zQC6Q0'
tRp3708
ag3
(g4
(S'S11'
I0
I1
tRp3709
(I3
S'|'
NNNI11
I1
I0
tbS'e0hYEr848TE'
tRp3710
ag3
(g4
(S'S11'
I0
I1
tRp3711
(I3
S'|'
NNNI11
I1
I0
tbS'2Zx4huY-KN8'
tRp3712
ag3
(g4
(S'S11'
I0
I1
tRp3713
(I3
S'|'
NNNI11
I1
I0
tbS'hASTLbFHrEs'
tRp3714
ag3
(g4
(S'S11'
I0
I1
tRp3715
(I3
S'|'
NNNI11
I1
I0
tbS'dEXSb0CfodU'
tRp3716
ag3
(g4
(S'S11'
I0
I1
tRp3717
(I3
S'|'
NNNI11
I1
I0
tbS'rB6WmWvvyxg'
tRp3718
ag3
(g4
(S'S5'
I0
I1
tRp3719
(I3
S'|'
NNNI5
I1
I0
tbS'34346'
tRp3720
ag3
(g4
(S'S5'
I0
I1
tRp3721
(I3
S'|'
NNNI5
I1
I0
tbS'76124'
tRp3722
ag3
(g4
(S'S11'
I0
I1
tRp3723
(I3
S'|'
NNNI11
I1
I0
tbS'3fhCxePBuZY'
tRp3724
ag3
(g4
(S'S11'
I0
I1
tRp3725
(I3
S'|'
NNNI11
I1
I0
tbS'uXYAfpQUYVE'
tRp3726
ag3
(g4
(S'S5'
I0
I1
tRp3727
(I3
S'|'
NNNI5
I1
I0
tbS'24202'
tRp3728
ag3
(g4
(S'S11'
I0
I1
tRp3729
(I3
S'|'
NNNI11
I1
I0
tbS'2-5hH_k2VFk'
tRp3730
ag3
(g4
(S'S11'
I0
I1
tRp3731
(I3
S'|'
NNNI11
I1
I0
tbS'URP2YlSNuZ4'
tRp3732
ag3
(g4
(S'S11'
I0
I1
tRp3733
(I3
S'|'
NNNI11
I1
I0
tbS'bBJ0BxmIocQ'
tRp3734
ag3
(g4
(S'S11'
I0
I1
tRp3735
(I3
S'|'
NNNI11
I1
I0
tbS'8wdxczYf1jI'
tRp3736
ag3
(g4
(S'S11'
I0
I1
tRp3737
(I3
S'|'
NNNI11
I1
I0
tbS'5hXC8JbiLd8'
tRp3738
ag3
(g4
(S'S11'
I0
I1
tRp3739
(I3
S'|'
NNNI11
I1
I0
tbS'dZolFNqR-hA'
tRp3740
ag3
(g4
(S'S11'
I0
I1
tRp3741
(I3
S'|'
NNNI11
I1
I0
tbS'PRZ4VhESz1A'
tRp3742
ag3
(g4
(S'S6'
I0
I1
tRp3743
(I3
S'|'
NNNI6
I1
I0
tbS'256174'
tRp3744
ag3
(g4
(S'S11'
I0
I1
tRp3745
(I3
S'|'
NNNI11
I1
I0
tbS'Dnhxm6sHQpc'
tRp3746
ag3
(g4
(S'S5'
I0
I1
tRp3747
(I3
S'|'
NNNI5
I1
I0
tbS'83310'
tRp3748
ag3
(g4
(S'S11'
I0
I1
tRp3749
(I3
S'|'
NNNI11
I1
I0
tbS'-mJ2ud6oKI8'
tRp3750
ag3
(g4
(S'S11'
I0
I1
tRp3751
(I3
S'|'
NNNI11
I1
I0
tbS'pU-MjERGTUk'
tRp3752
ag3
(g4
(S'S11'
I0
I1
tRp3753
(I3
S'|'
NNNI11
I1
I0
tbS'kzmaKnujN64'
tRp3754
ag3
(g4
(S'S11'
I0
I1
tRp3755
(I3
S'|'
NNNI11
I1
I0
tbS'Sir2QeCh4B0'
tRp3756
ag3
(g4
(S'S11'
I0
I1
tRp3757
(I3
S'|'
NNNI11
I1
I0
tbS'BBoe8-HWPSw'
tRp3758
ag3
(g4
(S'S11'
I0
I1
tRp3759
(I3
S'|'
NNNI11
I1
I0
tbS'U2Ydtq6qvL0'
tRp3760
ag3
(g4
(S'S11'
I0
I1
tRp3761
(I3
S'|'
NNNI11
I1
I0
tbS'KI2sU-mhM44'
tRp3762
ag3
(g4
(S'S11'
I0
I1
tRp3763
(I3
S'|'
NNNI11
I1
I0
tbS'iYtD_ArCdKw'
tRp3764
ag3
(g4
(S'S11'
I0
I1
tRp3765
(I3
S'|'
NNNI11
I1
I0
tbS'ELtbrO8FbuI'
tRp3766
ag3
(g4
(S'S11'
I0
I1
tRp3767
(I3
S'|'
NNNI11
I1
I0
tbS'S21ApRNQ9Ko'
tRp3768
ag3
(g4
(S'S11'
I0
I1
tRp3769
(I3
S'|'
NNNI11
I1
I0
tbS'hlBOP5NskhM'
tRp3770
ag3
(g4
(S'S11'
I0
I1
tRp3771
(I3
S'|'
NNNI11
I1
I0
tbS'pwj9YeMJC08'
tRp3772
ag3
(g4
(S'S11'
I0
I1
tRp3773
(I3
S'|'
NNNI11
I1
I0
tbS'JF-5nlUNx_g'
tRp3774
ag3
(g4
(S'S11'
I0
I1
tRp3775
(I3
S'|'
NNNI11
I1
I0
tbS'MSmTFZ_-THM'
tRp3776
ag3
(g4
(S'S11'
I0
I1
tRp3777
(I3
S'|'
NNNI11
I1
I0
tbS'cKldvZeyRDA'
tRp3778
ag3
(g4
(S'S11'
I0
I1
tRp3779
(I3
S'|'
NNNI11
I1
I0
tbS'EK2bnbzmJs4'
tRp3780
ag3
(g4
(S'S11'
I0
I1
tRp3781
(I3
S'|'
NNNI11
I1
I0
tbS'JvLMNXW7B10'
tRp3782
ag3
(g4
(S'S11'
I0
I1
tRp3783
(I3
S'|'
NNNI11
I1
I0
tbS'pY4ovojS4rk'
tRp3784
ag3
(g4
(S'S11'
I0
I1
tRp3785
(I3
S'|'
NNNI11
I1
I0
tbS'zknhrUs7-lI'
tRp3786
ag3
(g4
(S'S11'
I0
I1
tRp3787
(I3
S'|'
NNNI11
I1
I0
tbS'slLRsFFiiRc'
tRp3788
ag3
(g4
(S'S11'
I0
I1
tRp3789
(I3
S'|'
NNNI11
I1
I0
tbS'OJwO6g01qO8'
tRp3790
ag3
(g4
(S'S11'
I0
I1
tRp3791
(I3
S'|'
NNNI11
I1
I0
tbS'dOSyvhYsfFo'
tRp3792
ag3
(g4
(S'S11'
I0
I1
tRp3793
(I3
S'|'
NNNI11
I1
I0
tbS'K5cGfs3i-tk'
tRp3794
ag3
(g4
(S'S6'
I0
I1
tRp3795
(I3
S'|'
NNNI6
I1
I0
tbS'212532'
tRp3796
ag3
(g4
(S'S11'
I0
I1
tRp3797
(I3
S'|'
NNNI11
I1
I0
tbS'-mqbVkbCndg'
tRp3798
ag3
(g4
(S'S11'
I0
I1
tRp3799
(I3
S'|'
NNNI11
I1
I0
tbS'0mXv97u2OCM'
tRp3800
ag3
(g4
(S'S11'
I0
I1
tRp3801
(I3
S'|'
NNNI11
I1
I0
tbS'GICVzJMDfv0'
tRp3802
ag3
(g4
(S'S11'
I0
I1
tRp3803
(I3
S'|'
NNNI11
I1
I0
tbS'hUBQrLjm4M4'
tRp3804
ag3
(g4
(S'S11'
I0
I1
tRp3805
(I3
S'|'
NNNI11
I1
I0
tbS'lksy-At0vxc'
tRp3806
ag3
(g4
(S'S11'
I0
I1
tRp3807
(I3
S'|'
NNNI11
I1
I0
tbS'rEWQW_ibDwg'
tRp3808
ag3
(g4
(S'S11'
I0
I1
tRp3809
(I3
S'|'
NNNI11
I1
I0
tbS'E05bA058vts'
tRp3810
ag3
(g4
(S'S11'
I0
I1
tRp3811
(I3
S'|'
NNNI11
I1
I0
tbS'3sUS8vXbRwg'
tRp3812
ag3
(g4
(S'S11'
I0
I1
tRp3813
(I3
S'|'
NNNI11
I1
I0
tbS'EiG3r8hAVeY'
tRp3814
ag3
(g4
(S'S6'
I0
I1
tRp3815
(I3
S'|'
NNNI6
I1
I0
tbS'266396'
tRp3816
ag3
(g4
(S'S6'
I0
I1
tRp3817
(I3
S'|'
NNNI6
I1
I0
tbS'201582'
tRp3818
ag3
(g4
(S'S11'
I0
I1
tRp3819
(I3
S'|'
NNNI11
I1
I0
tbS'z7FicxE_pMU'
tRp3820
ag3
(g4
(S'S11'
I0
I1
tRp3821
(I3
S'|'
NNNI11
I1
I0
tbS'badtXoOJaf8'
tRp3822
ag3
(g4
(S'S6'
I0
I1
tRp3823
(I3
S'|'
NNNI6
I1
I0
tbS'130448'
tRp3824
ag3
(g4
(S'S6'
I0
I1
tRp3825
(I3
S'|'
NNNI6
I1
I0
tbS'262165'
tRp3826
ag3
(g4
(S'S11'
I0
I1
tRp3827
(I3
S'|'
NNNI11
I1
I0
tbS'UfLMdSGGQVw'
tRp3828
ag3
(g4
(S'S11'
I0
I1
tRp3829
(I3
S'|'
NNNI11
I1
I0
tbS'HAid0IEUoFQ'
tRp3830
ag3
(g4
(S'S11'
I0
I1
tRp3831
(I3
S'|'
NNNI11
I1
I0
tbS'856LGms_0s0'
tRp3832
ag3
(g4
(S'S11'
I0
I1
tRp3833
(I3
S'|'
NNNI11
I1
I0
tbS'u6H0sVuY1ac'
tRp3834
ag3
(g4
(S'S11'
I0
I1
tRp3835
(I3
S'|'
NNNI11
I1
I0
tbS'W53uRqITk2I'
tRp3836
ag3
(g4
(S'S11'
I0
I1
tRp3837
(I3
S'|'
NNNI11
I1
I0
tbS'tXxXhGD1aMo'
tRp3838
ag3
(g4
(S'S11'
I0
I1
tRp3839
(I3
S'|'
NNNI11
I1
I0
tbS'kz7ahNfXFsk'
tRp3840
ag3
(g4
(S'S11'
I0
I1
tRp3841
(I3
S'|'
NNNI11
I1
I0
tbS'OiMkqEH5WeE'
tRp3842
ag3
(g4
(S'S6'
I0
I1
tRp3843
(I3
S'|'
NNNI6
I1
I0
tbS'244829'
tRp3844
ag3
(g4
(S'S11'
I0
I1
tRp3845
(I3
S'|'
NNNI11
I1
I0
tbS'FaHosBIr0xY'
tRp3846
ag3
(g4
(S'S11'
I0
I1
tRp3847
(I3
S'|'
NNNI11
I1
I0
tbS'_YzIvwvyIq4'
tRp3848
ag3
(g4
(S'S5'
I0
I1
tRp3849
(I3
S'|'
NNNI5
I1
I0
tbS'96350'
tRp3850
ag3
(g4
(S'S11'
I0
I1
tRp3851
(I3
S'|'
NNNI11
I1
I0
tbS'bh4_Kd4hhd4'
tRp3852
ag3
(g4
(S'S11'
I0
I1
tRp3853
(I3
S'|'
NNNI11
I1
I0
tbS'Op3CnqRLD9w'
tRp3854
ag3
(g4
(S'S11'
I0
I1
tRp3855
(I3
S'|'
NNNI11
I1
I0
tbS'Ja7phs8EbWk'
tRp3856
ag3
(g4
(S'S11'
I0
I1
tRp3857
(I3
S'|'
NNNI11
I1
I0
tbS'WygyVNL_qdE'
tRp3858
ag3
(g4
(S'S11'
I0
I1
tRp3859
(I3
S'|'
NNNI11
I1
I0
tbS'aqmRPNfeOy8'
tRp3860
ag3
(g4
(S'S11'
I0
I1
tRp3861
(I3
S'|'
NNNI11
I1
I0
tbS'ogGweZUAVtU'
tRp3862
ag3
(g4
(S'S11'
I0
I1
tRp3863
(I3
S'|'
NNNI11
I1
I0
tbS'fzuTEKwNS94'
tRp3864
ag3
(g4
(S'S11'
I0
I1
tRp3865
(I3
S'|'
NNNI11
I1
I0
tbS'gcpsSao7kHM'
tRp3866
ag3
(g4
(S'S11'
I0
I1
tRp3867
(I3
S'|'
NNNI11
I1
I0
tbS'8f_lBxZgDb0'
tRp3868
ag3
(g4
(S'S11'
I0
I1
tRp3869
(I3
S'|'
NNNI11
I1
I0
tbS'Jg2okZn6Ut8'
tRp3870
ag3
(g4
(S'S11'
I0
I1
tRp3871
(I3
S'|'
NNNI11
I1
I0
tbS'DtwbwyfajnI'
tRp3872
ag3
(g4
(S'S11'
I0
I1
tRp3873
(I3
S'|'
NNNI11
I1
I0
tbS'cKUPgzZu-Fk'
tRp3874
ag3
(g4
(S'S11'
I0
I1
tRp3875
(I3
S'|'
NNNI11
I1
I0
tbS'8EHEEXex5D8'
tRp3876
ag3
(g4
(S'S11'
I0
I1
tRp3877
(I3
S'|'
NNNI11
I1
I0
tbS'wLj_gnNON7A'
tRp3878
ag3
(g4
(S'S11'
I0
I1
tRp3879
(I3
S'|'
NNNI11
I1
I0
tbS'zFTuwjr3xq0'
tRp3880
ag3
(g4
(S'S5'
I0
I1
tRp3881
(I3
S'|'
NNNI5
I1
I0
tbS'96179'
tRp3882
ag3
(g4
(S'S11'
I0
I1
tRp3883
(I3
S'|'
NNNI11
I1
I0
tbS'eZVcshSUD3Q'
tRp3884
ag3
(g4
(S'S11'
I0
I1
tRp3885
(I3
S'|'
NNNI11
I1
I0
tbS'_Vp4SDp_knI'
tRp3886
ag3
(g4
(S'S11'
I0
I1
tRp3887
(I3
S'|'
NNNI11
I1
I0
tbS'w-PFjo89Dpw'
tRp3888
ag3
(g4
(S'S11'
I0
I1
tRp3889
(I3
S'|'
NNNI11
I1
I0
tbS'jqKzaEniiKo'
tRp3890
ag3
(g4
(S'S11'
I0
I1
tRp3891
(I3
S'|'
NNNI11
I1
I0
tbS'w8TXP0iz29A'
tRp3892
ag3
(g4
(S'S5'
I0
I1
tRp3893
(I3
S'|'
NNNI5
I1
I0
tbS'52068'
tRp3894
ag3
(g4
(S'S11'
I0
I1
tRp3895
(I3
S'|'
NNNI11
I1
I0
tbS'0Xs8wJrAmxs'
tRp3896
ag3
(g4
(S'S11'
I0
I1
tRp3897
(I3
S'|'
NNNI11
I1
I0
tbS'8aZbX-xMdgI'
tRp3898
ag3
(g4
(S'S11'
I0
I1
tRp3899
(I3
S'|'
NNNI11
I1
I0
tbS'hF6kFQPdBjY'
tRp3900
ag3
(g4
(S'S6'
I0
I1
tRp3901
(I3
S'|'
NNNI6
I1
I0
tbS'215259'
tRp3902
ag3
(g4
(S'S11'
I0
I1
tRp3903
(I3
S'|'
NNNI11
I1
I0
tbS'IHv_yBn83P8'
tRp3904
ag3
(g4
(S'S11'
I0
I1
tRp3905
(I3
S'|'
NNNI11
I1
I0
tbS'uBgRo9tnv-I'
tRp3906
ag3
(g4
(S'S11'
I0
I1
tRp3907
(I3
S'|'
NNNI11
I1
I0
tbS'ARNWtLCbfW4'
tRp3908
ag3
(g4
(S'S6'
I0
I1
tRp3909
(I3
S'|'
NNNI6
I1
I0
tbS'128258'
tRp3910
ag3
(g4
(S'S11'
I0
I1
tRp3911
(I3
S'|'
NNNI11
I1
I0
tbS'1J9Fa995Ojs'
tRp3912
ag3
(g4
(S'S11'
I0
I1
tRp3913
(I3
S'|'
NNNI11
I1
I0
tbS'cSrM5mHACmA'
tRp3914
ag3
(g4
(S'S11'
I0
I1
tRp3915
(I3
S'|'
NNNI11
I1
I0
tbS'oOhxCwkZsUI'
tRp3916
ag3
(g4
(S'S11'
I0
I1
tRp3917
(I3
S'|'
NNNI11
I1
I0
tbS'XcHLB-qfv5M'
tRp3918
ag3
(g4
(S'S11'
I0
I1
tRp3919
(I3
S'|'
NNNI11
I1
I0
tbS'CQnwOZRgQXs'
tRp3920
ag3
(g4
(S'S11'
I0
I1
tRp3921
(I3
S'|'
NNNI11
I1
I0
tbS'5IhAgV0Bf_4'
tRp3922
ag3
(g4
(S'S11'
I0
I1
tRp3923
(I3
S'|'
NNNI11
I1
I0
tbS'pC0zFF8CXXk'
tRp3924
ag3
(g4
(S'S11'
I0
I1
tRp3925
(I3
S'|'
NNNI11
I1
I0
tbS'bkP-BNW4oMg'
tRp3926
ag3
(g4
(S'S11'
I0
I1
tRp3927
(I3
S'|'
NNNI11
I1
I0
tbS'dQ56b0bqmc8'
tRp3928
ag3
(g4
(S'S11'
I0
I1
tRp3929
(I3
S'|'
NNNI11
I1
I0
tbS'aiJg0jtIHOM'
tRp3930
ag3
(g4
(S'S11'
I0
I1
tRp3931
(I3
S'|'
NNNI11
I1
I0
tbS'MIuJDn_0yVU'
tRp3932
ag3
(g4
(S'S11'
I0
I1
tRp3933
(I3
S'|'
NNNI11
I1
I0
tbS'O2CEvvYWWbU'
tRp3934
ag3
(g4
(S'S11'
I0
I1
tRp3935
(I3
S'|'
NNNI11
I1
I0
tbS'6qmReTSoz0E'
tRp3936
ag3
(g4
(S'S5'
I0
I1
tRp3937
(I3
S'|'
NNNI5
I1
I0
tbS'37459'
tRp3938
ag3
(g4
(S'S11'
I0
I1
tRp3939
(I3
S'|'
NNNI11
I1
I0
tbS'iO34hER47xA'
tRp3940
ag3
(g4
(S'S11'
I0
I1
tRp3941
(I3
S'|'
NNNI11
I1
I0
tbS'P4qxfjZlIrY'
tRp3942
ag3
(g4
(S'S11'
I0
I1
tRp3943
(I3
S'|'
NNNI11
I1
I0
tbS'9Nhoi1jfDbY'
tRp3944
ag3
(g4
(S'S11'
I0
I1
tRp3945
(I3
S'|'
NNNI11
I1
I0
tbS'eYCiRWf2NHE'
tRp3946
ag3
(g4
(S'S11'
I0
I1
tRp3947
(I3
S'|'
NNNI11
I1
I0
tbS'QzdEjKQFisQ'
tRp3948
ag3
(g4
(S'S11'
I0
I1
tRp3949
(I3
S'|'
NNNI11
I1
I0
tbS'5RVF_3YBUVI'
tRp3950
ag3
(g4
(S'S11'
I0
I1
tRp3951
(I3
S'|'
NNNI11
I1
I0
tbS'etPDgRjrnJ8'
tRp3952
ag3
(g4
(S'S11'
I0
I1
tRp3953
(I3
S'|'
NNNI11
I1
I0
tbS'RwcTz-tOIeo'
tRp3954
ag3
(g4
(S'S11'
I0
I1
tRp3955
(I3
S'|'
NNNI11
I1
I0
tbS'gJdSxPhf85M'
tRp3956
ag3
(g4
(S'S11'
I0
I1
tRp3957
(I3
S'|'
NNNI11
I1
I0
tbS'JDgqyOkzXHw'
tRp3958
ag3
(g4
(S'S11'
I0
I1
tRp3959
(I3
S'|'
NNNI11
I1
I0
tbS'OKSx1zxHGpQ'
tRp3960
ag3
(g4
(S'S11'
I0
I1
tRp3961
(I3
S'|'
NNNI11
I1
I0
tbS'c9jD33baJ60'
tRp3962
ag3
(g4
(S'S11'
I0
I1
tRp3963
(I3
S'|'
NNNI11
I1
I0
tbS'ZZzdvUdOTww'
tRp3964
ag3
(g4
(S'S11'
I0
I1
tRp3965
(I3
S'|'
NNNI11
I1
I0
tbS'9dFEGb_RfwE'
tRp3966
ag3
(g4
(S'S11'
I0
I1
tRp3967
(I3
S'|'
NNNI11
I1
I0
tbS'BaX10vbFhuU'
tRp3968
ag3
(g4
(S'S11'
I0
I1
tRp3969
(I3
S'|'
NNNI11
I1
I0
tbS'8xfW_azeNPk'
tRp3970
ag3
(g4
(S'S11'
I0
I1
tRp3971
(I3
S'|'
NNNI11
I1
I0
tbS'cMsTvqU_-rc'
tRp3972
ag3
(g4
(S'S11'
I0
I1
tRp3973
(I3
S'|'
NNNI11
I1
I0
tbS'gU7McujYYPY'
tRp3974
ag3
(g4
(S'S11'
I0
I1
tRp3975
(I3
S'|'
NNNI11
I1
I0
tbS'0bsTzavb-AE'
tRp3976
ag3
(g4
(S'S11'
I0
I1
tRp3977
(I3
S'|'
NNNI11
I1
I0
tbS'j7fRIGphgtk'
tRp3978
ag3
(g4
(S'S11'
I0
I1
tRp3979
(I3
S'|'
NNNI11
I1
I0
tbS'48u68AzcWvE'
tRp3980
ag3
(g4
(S'S11'
I0
I1
tRp3981
(I3
S'|'
NNNI11
I1
I0
tbS'3sDL7mwosP0'
tRp3982
ag3
(g4
(S'S11'
I0
I1
tRp3983
(I3
S'|'
NNNI11
I1
I0
tbS'0DBfvvIVmqY'
tRp3984
ag3
(g4
(S'S11'
I0
I1
tRp3985
(I3
S'|'
NNNI11
I1
I0
tbS'_HabvL0VnrQ'
tRp3986
ag3
(g4
(S'S6'
I0
I1
tRp3987
(I3
S'|'
NNNI6
I1
I0
tbS'139006'
tRp3988
ag3
(g4
(S'S11'
I0
I1
tRp3989
(I3
S'|'
NNNI11
I1
I0
tbS'GxcOSmJAyYQ'
tRp3990
ag3
(g4
(S'S11'
I0
I1
tRp3991
(I3
S'|'
NNNI11
I1
I0
tbS'HXuRR2eBHHQ'
tRp3992
ag3
(g4
(S'S11'
I0
I1
tRp3993
(I3
S'|'
NNNI11
I1
I0
tbS'rvQ2cRnroOU'
tRp3994
ag3
(g4
(S'S11'
I0
I1
tRp3995
(I3
S'|'
NNNI11
I1
I0
tbS'snVkfJKvjwk'
tRp3996
ag3
(g4
(S'S11'
I0
I1
tRp3997
(I3
S'|'
NNNI11
I1
I0
tbS'ixQbCXLUUj8'
tRp3998
ag3
(g4
(S'S11'
I0
I1
tRp3999
(I3
S'|'
NNNI11
I1
I0
tbS'o63doZKEIds'
tRp4000
ag3
(g4
(S'S11'
I0
I1
tRp4001
(I3
S'|'
NNNI11
I1
I0
tbS'HIsJqphLCyw'
tRp4002
ag3
(g4
(S'S11'
I0
I1
tRp4003
(I3
S'|'
NNNI11
I1
I0
tbS'NzpymNJaFjo'
tRp4004
ag3
(g4
(S'S11'
I0
I1
tRp4005
(I3
S'|'
NNNI11
I1
I0
tbS'LpbSYaPRTqI'
tRp4006
ag3
(g4
(S'S11'
I0
I1
tRp4007
(I3
S'|'
NNNI11
I1
I0
tbS'aFhT0px8AMw'
tRp4008
ag3
(g4
(S'S11'
I0
I1
tRp4009
(I3
S'|'
NNNI11
I1
I0
tbS'kM6wo2bb3nw'
tRp4010
ag3
(g4
(S'S11'
I0
I1
tRp4011
(I3
S'|'
NNNI11
I1
I0
tbS'nAhn8-kZpM8'
tRp4012
ag3
(g4
(S'S11'
I0
I1
tRp4013
(I3
S'|'
NNNI11
I1
I0
tbS'ALlKbGE6BH0'
tRp4014
ag3
(g4
(S'S5'
I0
I1
tRp4015
(I3
S'|'
NNNI5
I1
I0
tbS'80914'
tRp4016
ag3
(g4
(S'S6'
I0
I1
tRp4017
(I3
S'|'
NNNI6
I1
I0
tbS'219775'
tRp4018
ag3
(g4
(S'S11'
I0
I1
tRp4019
(I3
S'|'
NNNI11
I1
I0
tbS'kkaX3okuvjI'
tRp4020
ag3
(g4
(S'S11'
I0
I1
tRp4021
(I3
S'|'
NNNI11
I1
I0
tbS'-egA8-b7-3M'
tRp4022
ag3
(g4
(S'S11'
I0
I1
tRp4023
(I3
S'|'
NNNI11
I1
I0
tbS'hfVXx8hfKak'
tRp4024
ag3
(g4
(S'S11'
I0
I1
tRp4025
(I3
S'|'
NNNI11
I1
I0
tbS'P3QEOJWxXI8'
tRp4026
ag3
(g4
(S'S11'
I0
I1
tRp4027
(I3
S'|'
NNNI11
I1
I0
tbS'WUeSV0Z23Kg'
tRp4028
ag3
(g4
(S'S11'
I0
I1
tRp4029
(I3
S'|'
NNNI11
I1
I0
tbS'H9zVQlzit8Y'
tRp4030
ag3
(g4
(S'S11'
I0
I1
tRp4031
(I3
S'|'
NNNI11
I1
I0
tbS'raQ9Pcgo-II'
tRp4032
ag3
(g4
(S'S11'
I0
I1
tRp4033
(I3
S'|'
NNNI11
I1
I0
tbS'aE7sckIAWuw'
tRp4034
ag3
(g4
(S'S11'
I0
I1
tRp4035
(I3
S'|'
NNNI11
I1
I0
tbS'oVqBUyKvgdU'
tRp4036
ag3
(g4
(S'S11'
I0
I1
tRp4037
(I3
S'|'
NNNI11
I1
I0
tbS'hnSdAbnHDy4'
tRp4038
ag3
(g4
(S'S6'
I0
I1
tRp4039
(I3
S'|'
NNNI6
I1
I0
tbS'188122'
tRp4040
ag3
(g4
(S'S11'
I0
I1
tRp4041
(I3
S'|'
NNNI11
I1
I0
tbS'YAYfMkxhRiQ'
tRp4042
ag3
(g4
(S'S11'
I0
I1
tRp4043
(I3
S'|'
NNNI11
I1
I0
tbS'Na6170hd8po'
tRp4044
ag3
(g4
(S'S11'
I0
I1
tRp4045
(I3
S'|'
NNNI11
I1
I0
tbS'4wdeBJ39Cuw'
tRp4046
ag3
(g4
(S'S11'
I0
I1
tRp4047
(I3
S'|'
NNNI11
I1
I0
tbS'qjMyjLSORY4'
tRp4048
ag3
(g4
(S'S11'
I0
I1
tRp4049
(I3
S'|'
NNNI11
I1
I0
tbS'SZRxuS6fn9s'
tRp4050
ag3
(g4
(S'S5'
I0
I1
tRp4051
(I3
S'|'
NNNI5
I1
I0
tbS'87161'
tRp4052
ag3
(g4
(S'S11'
I0
I1
tRp4053
(I3
S'|'
NNNI11
I1
I0
tbS'nGah7qST1dI'
tRp4054
ag3
(g4
(S'S11'
I0
I1
tRp4055
(I3
S'|'
NNNI11
I1
I0
tbS'TSDC7CCyeGY'
tRp4056
ag3
(g4
(S'S11'
I0
I1
tRp4057
(I3
S'|'
NNNI11
I1
I0
tbS'0OC3wf9x3zQ'
tRp4058
ag3
(g4
(S'S11'
I0
I1
tRp4059
(I3
S'|'
NNNI11
I1
I0
tbS'v1GKBjohgHc'
tRp4060
ag3
(g4
(S'S11'
I0
I1
tRp4061
(I3
S'|'
NNNI11
I1
I0
tbS'v9GshyXtiWg'
tRp4062
ag3
(g4
(S'S11'
I0
I1
tRp4063
(I3
S'|'
NNNI11
I1
I0
tbS'EO_SN04Xef0'
tRp4064
ag3
(g4
(S'S11'
I0
I1
tRp4065
(I3
S'|'
NNNI11
I1
I0
tbS'O3whFU2lAAk'
tRp4066
ag3
(g4
(S'S11'
I0
I1
tRp4067
(I3
S'|'
NNNI11
I1
I0
tbS'kPn-t6NSxfQ'
tRp4068
ag3
(g4
(S'S11'
I0
I1
tRp4069
(I3
S'|'
NNNI11
I1
I0
tbS'XFJQJb0yaKY'
tRp4070
ag3
(g4
(S'S11'
I0
I1
tRp4071
(I3
S'|'
NNNI11
I1
I0
tbS'aXla94xd_AQ'
tRp4072
ag3
(g4
(S'S5'
I0
I1
tRp4073
(I3
S'|'
NNNI5
I1
I0
tbS'79644'
tRp4074
ag3
(g4
(S'S11'
I0
I1
tRp4075
(I3
S'|'
NNNI11
I1
I0
tbS'91y7nPEWdmQ'
tRp4076
ag3
(g4
(S'S11'
I0
I1
tRp4077
(I3
S'|'
NNNI11
I1
I0
tbS'4WTVL5bNybU'
tRp4078
ag3
(g4
(S'S11'
I0
I1
tRp4079
(I3
S'|'
NNNI11
I1
I0
tbS'yp6Gd2NPwOU'
tRp4080
ag3
(g4
(S'S11'
I0
I1
tRp4081
(I3
S'|'
NNNI11
I1
I0
tbS'vM9AH4EqCaA'
tRp4082
ag3
(g4
(S'S11'
I0
I1
tRp4083
(I3
S'|'
NNNI11
I1
I0
tbS'0YdYFtVdlWE'
tRp4084
ag3
(g4
(S'S11'
I0
I1
tRp4085
(I3
S'|'
NNNI11
I1
I0
tbS'd0QNH2vcDgU'
tRp4086
ag3
(g4
(S'S5'
I0
I1
tRp4087
(I3
S'|'
NNNI5
I1
I0
tbS'89747'
tRp4088
ag3
(g4
(S'S11'
I0
I1
tRp4089
(I3
S'|'
NNNI11
I1
I0
tbS'FHlzZ2VxuGQ'
tRp4090
ag3
(g4
(S'S11'
I0
I1
tRp4091
(I3
S'|'
NNNI11
I1
I0
tbS'CbQxC1iPyS8'
tRp4092
ag3
(g4
(S'S11'
I0
I1
tRp4093
(I3
S'|'
NNNI11
I1
I0
tbS'2ahFSMFvs_c'
tRp4094
ag3
(g4
(S'S6'
I0
I1
tRp4095
(I3
S'|'
NNNI6
I1
I0
tbS'227426'
tRp4096
ag3
(g4
(S'S11'
I0
I1
tRp4097
(I3
S'|'
NNNI11
I1
I0
tbS'J_DtcW86D9c'
tRp4098
ag3
(g4
(S'S6'
I0
I1
tRp4099
(I3
S'|'
NNNI6
I1
I0
tbS'194625'
tRp4100
ag3
(g4
(S'S11'
I0
I1
tRp4101
(I3
S'|'
NNNI11
I1
I0
tbS'0jtdrsmVzYQ'
tRp4102
ag3
(g4
(S'S6'
I0
I1
tRp4103
(I3
S'|'
NNNI6
I1
I0
tbS'267255'
tRp4104
ag3
(g4
(S'S6'
I0
I1
tRp4105
(I3
S'|'
NNNI6
I1
I0
tbS'267252'
tRp4106
ag3
(g4
(S'S11'
I0
I1
tRp4107
(I3
S'|'
NNNI11
I1
I0
tbS'cHBRDdSXLtU'
tRp4108
ag3
(g4
(S'S11'
I0
I1
tRp4109
(I3
S'|'
NNNI11
I1
I0
tbS'PoKZEKOf1dA'
tRp4110
ag3
(g4
(S'S5'
I0
I1
tRp4111
(I3
S'|'
NNNI5
I1
I0
tbS'12812'
tRp4112
ag3
(g4
(S'S6'
I0
I1
tRp4113
(I3
S'|'
NNNI6
I1
I0
tbS'268836'
tRp4114
ag3
(g4
(S'S11'
I0
I1
tRp4115
(I3
S'|'
NNNI11
I1
I0
tbS'r4ul1wl_1T8'
tRp4116
ag3
(g4
(S'S11'
I0
I1
tRp4117
(I3
S'|'
NNNI11
I1
I0
tbS'zsRTbbKlsEg'
tRp4118
ag3
(g4
(S'S11'
I0
I1
tRp4119
(I3
S'|'
NNNI11
I1
I0
tbS'kqXpf26EL-s'
tRp4120
ag3
(g4
(S'S11'
I0
I1
tRp4121
(I3
S'|'
NNNI11
I1
I0
tbS'RRKez9BR-94'
tRp4122
ag3
(g4
(S'S11'
I0
I1
tRp4123
(I3
S'|'
NNNI11
I1
I0
tbS'4Vl6AeEkAg4'
tRp4124
ag3
(g4
(S'S11'
I0
I1
tRp4125
(I3
S'|'
NNNI11
I1
I0
tbS'uy9MGhVqCp8'
tRp4126
ag3
(g4
(S'S11'
I0
I1
tRp4127
(I3
S'|'
NNNI11
I1
I0
tbS'39lcRCFvV-s'
tRp4128
ag3
(g4
(S'S11'
I0
I1
tRp4129
(I3
S'|'
NNNI11
I1
I0
tbS'PtdK-TLOuD0'
tRp4130
ag3
(g4
(S'S11'
I0
I1
tRp4131
(I3
S'|'
NNNI11
I1
I0
tbS'120vnZnmhq4'
tRp4132
ag3
(g4
(S'S11'
I0
I1
tRp4133
(I3
S'|'
NNNI11
I1
I0
tbS'qCUg4ek1PPE'
tRp4134
ag3
(g4
(S'S11'
I0
I1
tRp4135
(I3
S'|'
NNNI11
I1
I0
tbS'E7ZLz3tSwNM'
tRp4136
ag3
(g4
(S'S11'
I0
I1
tRp4137
(I3
S'|'
NNNI11
I1
I0
tbS'6_k3cw9_k-Y'
tRp4138
ag3
(g4
(S'S11'
I0
I1
tRp4139
(I3
S'|'
NNNI11
I1
I0
tbS'mrQIrm6hYMQ'
tRp4140
ag3
(g4
(S'S11'
I0
I1
tRp4141
(I3
S'|'
NNNI11
I1
I0
tbS'zJWmmDk9fCE'
tRp4142
ag3
(g4
(S'S11'
I0
I1
tRp4143
(I3
S'|'
NNNI11
I1
I0
tbS'-WXXTNIJcVM'
tRp4144
ag3
(g4
(S'S11'
I0
I1
tRp4145
(I3
S'|'
NNNI11
I1
I0
tbS'JSlTJsUulH0'
tRp4146
ag3
(g4
(S'S5'
I0
I1
tRp4147
(I3
S'|'
NNNI5
I1
I0
tbS'97095'
tRp4148
ag3
(g4
(S'S11'
I0
I1
tRp4149
(I3
S'|'
NNNI11
I1
I0
tbS'aWwjhcYLbRw'
tRp4150
ag3
(g4
(S'S11'
I0
I1
tRp4151
(I3
S'|'
NNNI11
I1
I0
tbS'xnNZyfhusAk'
tRp4152
ag3
(g4
(S'S11'
I0
I1
tRp4153
(I3
S'|'
NNNI11
I1
I0
tbS'd3I7Ug-_3L0'
tRp4154
ag3
(g4
(S'S11'
I0
I1
tRp4155
(I3
S'|'
NNNI11
I1
I0
tbS'YEOU4KFDjZo'
tRp4156
ag3
(g4
(S'S11'
I0
I1
tRp4157
(I3
S'|'
NNNI11
I1
I0
tbS'xYtNgq9eTlg'
tRp4158
ag3
(g4
(S'S6'
I0
I1
tRp4159
(I3
S'|'
NNNI6
I1
I0
tbS'250430'
tRp4160
ag3
(g4
(S'S11'
I0
I1
tRp4161
(I3
S'|'
NNNI11
I1
I0
tbS'cl1DNRGX578'
tRp4162
ag3
(g4
(S'S11'
I0
I1
tRp4163
(I3
S'|'
NNNI11
I1
I0
tbS'sWsDAG6x9n0'
tRp4164
ag3
(g4
(S'S11'
I0
I1
tRp4165
(I3
S'|'
NNNI11
I1
I0
tbS'Qe4AT670hq4'
tRp4166
ag3
(g4
(S'S11'
I0
I1
tRp4167
(I3
S'|'
NNNI11
I1
I0
tbS'OEesmAnTpeA'
tRp4168
ag3
(g4
(S'S11'
I0
I1
tRp4169
(I3
S'|'
NNNI11
I1
I0
tbS'fEm9AdLNrjk'
tRp4170
ag3
(g4
(S'S11'
I0
I1
tRp4171
(I3
S'|'
NNNI11
I1
I0
tbS'L1gXZVU6AE4'
tRp4172
ag3
(g4
(S'S11'
I0
I1
tRp4173
(I3
S'|'
NNNI11
I1
I0
tbS'Gv0kKbfwPpI'
tRp4174
ag3
(g4
(S'S6'
I0
I1
tRp4175
(I3
S'|'
NNNI6
I1
I0
tbS'273171'
tRp4176
ag3
(g4
(S'S11'
I0
I1
tRp4177
(I3
S'|'
NNNI11
I1
I0
tbS'GcfETVXgtg0'
tRp4178
ag3
(g4
(S'S11'
I0
I1
tRp4179
(I3
S'|'
NNNI11
I1
I0
tbS'tXxf6-CilNI'
tRp4180
ag3
(g4
(S'S11'
I0
I1
tRp4181
(I3
S'|'
NNNI11
I1
I0
tbS'0Svu5BldR5A'
tRp4182
ag3
(g4
(S'S11'
I0
I1
tRp4183
(I3
S'|'
NNNI11
I1
I0
tbS'7ZzbemE4QEE'
tRp4184
ag3
(g4
(S'S5'
I0
I1
tRp4185
(I3
S'|'
NNNI5
I1
I0
tbS'96361'
tRp4186
ag3
(g4
(S'S6'
I0
I1
tRp4187
(I3
S'|'
NNNI6
I1
I0
tbS'244836'
tRp4188
ag3
(g4
(S'S11'
I0
I1
tRp4189
(I3
S'|'
NNNI11
I1
I0
tbS'jFpRdhl3fgw'
tRp4190
ag3
(g4
(S'S11'
I0
I1
tRp4191
(I3
S'|'
NNNI11
I1
I0
tbS'UK_IXtJ2BqI'
tRp4192
ag3
(g4
(S'S11'
I0
I1
tRp4193
(I3
S'|'
NNNI11
I1
I0
tbS'yxZydS2qHzs'
tRp4194
ag3
(g4
(S'S11'
I0
I1
tRp4195
(I3
S'|'
NNNI11
I1
I0
tbS'9JqwFRCTKOM'
tRp4196
ag3
(g4
(S'S11'
I0
I1
tRp4197
(I3
S'|'
NNNI11
I1
I0
tbS'ZSBoSJaD2tQ'
tRp4198
ag3
(g4
(S'S11'
I0
I1
tRp4199
(I3
S'|'
NNNI11
I1
I0
tbS'Emjv2cDzW1E'
tRp4200
ag3
(g4
(S'S11'
I0
I1
tRp4201
(I3
S'|'
NNNI11
I1
I0
tbS'3gA34VxBijI'
tRp4202
ag3
(g4
(S'S11'
I0
I1
tRp4203
(I3
S'|'
NNNI11
I1
I0
tbS'-HwX2H8Z4hY'
tRp4204
ag3
(g4
(S'S11'
I0
I1
tRp4205
(I3
S'|'
NNNI11
I1
I0
tbS'VCIe-4p0xoM'
tRp4206
ag3
(g4
(S'S11'
I0
I1
tRp4207
(I3
S'|'
NNNI11
I1
I0
tbS'pKXaKinzTmY'
tRp4208
ag3
(g4
(S'S11'
I0
I1
tRp4209
(I3
S'|'
NNNI11
I1
I0
tbS'55T4QNcdpOk'
tRp4210
ag3
(g4
(S'S11'
I0
I1
tRp4211
(I3
S'|'
NNNI11
I1
I0
tbS'nF0AMbTH4VM'
tRp4212
ag3
(g4
(S'S11'
I0
I1
tRp4213
(I3
S'|'
NNNI11
I1
I0
tbS'ExDLNkDVsxY'
tRp4214
ag3
(g4
(S'S11'
I0
I1
tRp4215
(I3
S'|'
NNNI11
I1
I0
tbS'1mHjMNZZvFo'
tRp4216
ag3
(g4
(S'S11'
I0
I1
tRp4217
(I3
S'|'
NNNI11
I1
I0
tbS'0AA-wmk8WdA'
tRp4218
ag3
(g4
(S'S11'
I0
I1
tRp4219
(I3
S'|'
NNNI11
I1
I0
tbS'ZJGzEeDXbyM'
tRp4220
ag3
(g4
(S'S11'
I0
I1
tRp4221
(I3
S'|'
NNNI11
I1
I0
tbS'lUNNDDsm7R8'
tRp4222
ag3
(g4
(S'S11'
I0
I1
tRp4223
(I3
S'|'
NNNI11
I1
I0
tbS'0W4WsjhDgUI'
tRp4224
ag3
(g4
(S'S11'
I0
I1
tRp4225
(I3
S'|'
NNNI11
I1
I0
tbS'LQnXVd-PR_Y'
tRp4226
ag3
(g4
(S'S11'
I0
I1
tRp4227
(I3
S'|'
NNNI11
I1
I0
tbS'TFKgo5JlPro'
tRp4228
ag3
(g4
(S'S11'
I0
I1
tRp4229
(I3
S'|'
NNNI11
I1
I0
tbS'D02PT0bl88A'
tRp4230
ag3
(g4
(S'S11'
I0
I1
tRp4231
(I3
S'|'
NNNI11
I1
I0
tbS'qtI3CB1jslQ'
tRp4232
ag3
(g4
(S'S11'
I0
I1
tRp4233
(I3
S'|'
NNNI11
I1
I0
tbS'1x7kf9vArjU'
tRp4234
ag3
(g4
(S'S11'
I0
I1
tRp4235
(I3
S'|'
NNNI11
I1
I0
tbS'zv0Jl4TIQDc'
tRp4236
ag3
(g4
(S'S11'
I0
I1
tRp4237
(I3
S'|'
NNNI11
I1
I0
tbS'RaTQZrdICKo'
tRp4238
ag3
(g4
(S'S11'
I0
I1
tRp4239
(I3
S'|'
NNNI11
I1
I0
tbS'_v8c7iWkYz0'
tRp4240
ag3
(g4
(S'S11'
I0
I1
tRp4241
(I3
S'|'
NNNI11
I1
I0
tbS'aFZIvp3SgHY'
tRp4242
ag3
(g4
(S'S11'
I0
I1
tRp4243
(I3
S'|'
NNNI11
I1
I0
tbS'IAubgwEiCcY'
tRp4244
ag3
(g4
(S'S11'
I0
I1
tRp4245
(I3
S'|'
NNNI11
I1
I0
tbS'cmJW6mkspkI'
tRp4246
ag3
(g4
(S'S11'
I0
I1
tRp4247
(I3
S'|'
NNNI11
I1
I0
tbS'bD0FqMn1KXw'
tRp4248
ag3
(g4
(S'S11'
I0
I1
tRp4249
(I3
S'|'
NNNI11
I1
I0
tbS'zeQKU2L173M'
tRp4250
ag3
(g4
(S'S11'
I0
I1
tRp4251
(I3
S'|'
NNNI11
I1
I0
tbS'I3SPlbTGuNc'
tRp4252
ag3
(g4
(S'S11'
I0
I1
tRp4253
(I3
S'|'
NNNI11
I1
I0
tbS'15ktF-6wutk'
tRp4254
ag3
(g4
(S'S11'
I0
I1
tRp4255
(I3
S'|'
NNNI11
I1
I0
tbS'NOl0v54DaXo'
tRp4256
ag3
(g4
(S'S11'
I0
I1
tRp4257
(I3
S'|'
NNNI11
I1
I0
tbS'NKindd5Xn3s'
tRp4258
ag3
(g4
(S'S11'
I0
I1
tRp4259
(I3
S'|'
NNNI11
I1
I0
tbS'RgubFcmvgDE'
tRp4260
ag3
(g4
(S'S11'
I0
I1
tRp4261
(I3
S'|'
NNNI11
I1
I0
tbS'9-EO2oCAGA4'
tRp4262
ag3
(g4
(S'S11'
I0
I1
tRp4263
(I3
S'|'
NNNI11
I1
I0
tbS'TwTLsgfpKvA'
tRp4264
ag3
(g4
(S'S11'
I0
I1
tRp4265
(I3
S'|'
NNNI11
I1
I0
tbS'xqcqieV0Rn8'
tRp4266
ag3
(g4
(S'S11'
I0
I1
tRp4267
(I3
S'|'
NNNI11
I1
I0
tbS'dWfgSGnd9zM'
tRp4268
ag3
(g4
(S'S11'
I0
I1
tRp4269
(I3
S'|'
NNNI11
I1
I0
tbS'DatH-ra0VKY'
tRp4270
ag3
(g4
(S'S11'
I0
I1
tRp4271
(I3
S'|'
NNNI11
I1
I0
tbS'F4OhXQTMOEc'
tRp4272
ag3
(g4
(S'S11'
I0
I1
tRp4273
(I3
S'|'
NNNI11
I1
I0
tbS'aYdMtEO0cbI'
tRp4274
ag3
(g4
(S'S11'
I0
I1
tRp4275
(I3
S'|'
NNNI11
I1
I0
tbS'-NFrJFQijFE'
tRp4276
ag3
(g4
(S'S11'
I0
I1
tRp4277
(I3
S'|'
NNNI11
I1
I0
tbS'zU2_X9lIcUM'
tRp4278
ag3
(g4
(S'S11'
I0
I1
tRp4279
(I3
S'|'
NNNI11
I1
I0
tbS'FcAgbLF6__s'
tRp4280
ag3
(g4
(S'S11'
I0
I1
tRp4281
(I3
S'|'
NNNI11
I1
I0
tbS'uAExKaLeOl8'
tRp4282
ag3
(g4
(S'S11'
I0
I1
tRp4283
(I3
S'|'
NNNI11
I1
I0
tbS'eaXDCknxPrU'
tRp4284
ag3
(g4
(S'S6'
I0
I1
tRp4285
(I3
S'|'
NNNI6
I1
I0
tbS'140317'
tRp4286
ag3
(g4
(S'S11'
I0
I1
tRp4287
(I3
S'|'
NNNI11
I1
I0
tbS'6J_yzh1LNAE'
tRp4288
ag3
(g4
(S'S11'
I0
I1
tRp4289
(I3
S'|'
NNNI11
I1
I0
tbS'-t217m2on-s'
tRp4290
ag3
(g4
(S'S11'
I0
I1
tRp4291
(I3
S'|'
NNNI11
I1
I0
tbS'qmx0nQZYHIo'
tRp4292
ag3
(g4
(S'S11'
I0
I1
tRp4293
(I3
S'|'
NNNI11
I1
I0
tbS'amem5EmRG3s'
tRp4294
ag3
(g4
(S'S11'
I0
I1
tRp4295
(I3
S'|'
NNNI11
I1
I0
tbS'J3JU1zBQ4RM'
tRp4296
ag3
(g4
(S'S5'
I0
I1
tRp4297
(I3
S'|'
NNNI5
I1
I0
tbS'60037'
tRp4298
ag3
(g4
(S'S11'
I0
I1
tRp4299
(I3
S'|'
NNNI11
I1
I0
tbS'FX-YgVKC1AI'
tRp4300
ag3
(g4
(S'S11'
I0
I1
tRp4301
(I3
S'|'
NNNI11
I1
I0
tbS'OBaMn1-x7jQ'
tRp4302
ag3
(g4
(S'S6'
I0
I1
tRp4303
(I3
S'|'
NNNI6
I1
I0
tbS'294178'
tRp4304
ag3
(g4
(S'S11'
I0
I1
tRp4305
(I3
S'|'
NNNI11
I1
I0
tbS'l5_DDqck4Rs'
tRp4306
ag3
(g4
(S'S11'
I0
I1
tRp4307
(I3
S'|'
NNNI11
I1
I0
tbS'YRbtXb9fWmI'
tRp4308
ag3
(g4
(S'S11'
I0
I1
tRp4309
(I3
S'|'
NNNI11
I1
I0
tbS't-wXEPHHtME'
tRp4310
ag3
(g4
(S'S11'
I0
I1
tRp4311
(I3
S'|'
NNNI11
I1
I0
tbS'oaC1UATdtAg'
tRp4312
ag3
(g4
(S'S5'
I0
I1
tRp4313
(I3
S'|'
NNNI5
I1
I0
tbS'84133'
tRp4314
ag3
(g4
(S'S11'
I0
I1
tRp4315
(I3
S'|'
NNNI11
I1
I0
tbS'HVksxaUzv9Y'
tRp4316
ag3
(g4
(S'S11'
I0
I1
tRp4317
(I3
S'|'
NNNI11
I1
I0
tbS'laxadgca3Fo'
tRp4318
ag3
(g4
(S'S11'
I0
I1
tRp4319
(I3
S'|'
NNNI11
I1
I0
tbS'MTU_thei3-c'
tRp4320
ag3
(g4
(S'S6'
I0
I1
tRp4321
(I3
S'|'
NNNI6
I1
I0
tbS'219310'
tRp4322
ag3
(g4
(S'S11'
I0
I1
tRp4323
(I3
S'|'
NNNI11
I1
I0
tbS'jD3iIEsc_K4'
tRp4324
ag3
(g4
(S'S11'
I0
I1
tRp4325
(I3
S'|'
NNNI11
I1
I0
tbS'18JTkk8JbeU'
tRp4326
ag3
(g4
(S'S11'
I0
I1
tRp4327
(I3
S'|'
NNNI11
I1
I0
tbS'qJZlp9uxoTU'
tRp4328
ag3
(g4
(S'S11'
I0
I1
tRp4329
(I3
S'|'
NNNI11
I1
I0
tbS'WtiBpLt2wuA'
tRp4330
ag3
(g4
(S'S11'
I0
I1
tRp4331
(I3
S'|'
NNNI11
I1
I0
tbS'TUY83eDK5jc'
tRp4332
ag3
(g4
(S'S11'
I0
I1
tRp4333
(I3
S'|'
NNNI11
I1
I0
tbS'R5a3TP-l_n4'
tRp4334
ag3
(g4
(S'S5'
I0
I1
tRp4335
(I3
S'|'
NNNI5
I1
I0
tbS'45676'
tRp4336
ag3
(g4
(S'S11'
I0
I1
tRp4337
(I3
S'|'
NNNI11
I1
I0
tbS'iFGoQUh81as'
tRp4338
ag3
(g4
(S'S6'
I0
I1
tRp4339
(I3
S'|'
NNNI6
I1
I0
tbS'236399'
tRp4340
ag3
(g4
(S'S11'
I0
I1
tRp4341
(I3
S'|'
NNNI11
I1
I0
tbS'sjoArVtU8-o'
tRp4342
ag3
(g4
(S'S11'
I0
I1
tRp4343
(I3
S'|'
NNNI11
I1
I0
tbS'_UNQDdiAbWI'
tRp4344
ag3
(g4
(S'S11'
I0
I1
tRp4345
(I3
S'|'
NNNI11
I1
I0
tbS'bdtwQxwySN0'
tRp4346
ag3
(g4
(S'S11'
I0
I1
tRp4347
(I3
S'|'
NNNI11
I1
I0
tbS'f6S2XNPIiFk'
tRp4348
ag3
(g4
(S'S11'
I0
I1
tRp4349
(I3
S'|'
NNNI11
I1
I0
tbS'0hCihQ5Kep0'
tRp4350
ag3
(g4
(S'S11'
I0
I1
tRp4351
(I3
S'|'
NNNI11
I1
I0
tbS'kDyK9VGfLW8'
tRp4352
ag3
(g4
(S'S11'
I0
I1
tRp4353
(I3
S'|'
NNNI11
I1
I0
tbS'36o2cux9kfQ'
tRp4354
ag3
(g4
(S'S11'
I0
I1
tRp4355
(I3
S'|'
NNNI11
I1
I0
tbS'Ea_Huc2-lwo'
tRp4356
ag3
(g4
(S'S11'
I0
I1
tRp4357
(I3
S'|'
NNNI11
I1
I0
tbS'2-EJz4RG4g4'
tRp4358
ag3
(g4
(S'S11'
I0
I1
tRp4359
(I3
S'|'
NNNI11
I1
I0
tbS'kKMfsWrigTE'
tRp4360
ag3
(g4
(S'S6'
I0
I1
tRp4361
(I3
S'|'
NNNI6
I1
I0
tbS'139032'
tRp4362
ag3
(g4
(S'S11'
I0
I1
tRp4363
(I3
S'|'
NNNI11
I1
I0
tbS'WXKgBIiP8IA'
tRp4364
ag3
(g4
(S'S5'
I0
I1
tRp4365
(I3
S'|'
NNNI5
I1
I0
tbS'87400'
tRp4366
ag3
(g4
(S'S11'
I0
I1
tRp4367
(I3
S'|'
NNNI11
I1
I0
tbS'21Kxt5L9OBE'
tRp4368
ag3
(g4
(S'S11'
I0
I1
tRp4369
(I3
S'|'
NNNI11
I1
I0
tbS'XAgD-xoil40'
tRp4370
ag3
(g4
(S'S11'
I0
I1
tRp4371
(I3
S'|'
NNNI11
I1
I0
tbS's1tVE8g6JBc'
tRp4372
ag3
(g4
(S'S6'
I0
I1
tRp4373
(I3
S'|'
NNNI6
I1
I0
tbS'112148'
tRp4374
ag3
(g4
(S'S11'
I0
I1
tRp4375
(I3
S'|'
NNNI11
I1
I0
tbS'3VsrcbjPwZY'
tRp4376
ag3
(g4
(S'S11'
I0
I1
tRp4377
(I3
S'|'
NNNI11
I1
I0
tbS'cUm0TN3vXRc'
tRp4378
ag3
(g4
(S'S11'
I0
I1
tRp4379
(I3
S'|'
NNNI11
I1
I0
tbS'aCwLQrJz4Bo'
tRp4380
ag3
(g4
(S'S11'
I0
I1
tRp4381
(I3
S'|'
NNNI11
I1
I0
tbS'Zj_4YmbMWtg'
tRp4382
ag3
(g4
(S'S11'
I0
I1
tRp4383
(I3
S'|'
NNNI11
I1
I0
tbS'ddix4XuaUlY'
tRp4384
ag3
(g4
(S'S11'
I0
I1
tRp4385
(I3
S'|'
NNNI11
I1
I0
tbS'YGeVGXXK3ao'
tRp4386
ag3
(g4
(S'S11'
I0
I1
tRp4387
(I3
S'|'
NNNI11
I1
I0
tbS'BmDybDBTe7o'
tRp4388
ag3
(g4
(S'S11'
I0
I1
tRp4389
(I3
S'|'
NNNI11
I1
I0
tbS'xk4C4p5vHDk'
tRp4390
ag3
(g4
(S'S11'
I0
I1
tRp4391
(I3
S'|'
NNNI11
I1
I0
tbS'13JpsLvddoY'
tRp4392
ag3
(g4
(S'S11'
I0
I1
tRp4393
(I3
S'|'
NNNI11
I1
I0
tbS'ueCWy7aTmyo'
tRp4394
ag3
(g4
(S'S11'
I0
I1
tRp4395
(I3
S'|'
NNNI11
I1
I0
tbS'WZVfvgTeFPo'
tRp4396
ag3
(g4
(S'S11'
I0
I1
tRp4397
(I3
S'|'
NNNI11
I1
I0
tbS'ygb8Cfxghbs'
tRp4398
ag3
(g4
(S'S11'
I0
I1
tRp4399
(I3
S'|'
NNNI11
I1
I0
tbS'4jTUcNlxlYA'
tRp4400
ag3
(g4
(S'S11'
I0
I1
tRp4401
(I3
S'|'
NNNI11
I1
I0
tbS'JWG_MUy7EWQ'
tRp4402
ag3
(g4
(S'S11'
I0
I1
tRp4403
(I3
S'|'
NNNI11
I1
I0
tbS'F9NruwaEmA8'
tRp4404
ag3
(g4
(S'S11'
I0
I1
tRp4405
(I3
S'|'
NNNI11
I1
I0
tbS'FsmNLTdE2p0'
tRp4406
ag3
(g4
(S'S11'
I0
I1
tRp4407
(I3
S'|'
NNNI11
I1
I0
tbS'CvW0Mh1EWFA'
tRp4408
ag3
(g4
(S'S11'
I0
I1
tRp4409
(I3
S'|'
NNNI11
I1
I0
tbS'XgT2WWcXip4'
tRp4410
ag3
(g4
(S'S11'
I0
I1
tRp4411
(I3
S'|'
NNNI11
I1
I0
tbS'FR0B64ID-hA'
tRp4412
ag3
(g4
(S'S11'
I0
I1
tRp4413
(I3
S'|'
NNNI11
I1
I0
tbS's0PUurm1ONo'
tRp4414
ag3
(g4
(S'S11'
I0
I1
tRp4415
(I3
S'|'
NNNI11
I1
I0
tbS'maO6KmmgcB8'
tRp4416
ag3
(g4
(S'S11'
I0
I1
tRp4417
(I3
S'|'
NNNI11
I1
I0
tbS'nISNBD3I95A'
tRp4418
ag3
(g4
(S'S11'
I0
I1
tRp4419
(I3
S'|'
NNNI11
I1
I0
tbS'FGnHDWGYsA8'
tRp4420
ag3
(g4
(S'S11'
I0
I1
tRp4421
(I3
S'|'
NNNI11
I1
I0
tbS'u8ViR4L2cVk'
tRp4422
ag3
(g4
(S'S6'
I0
I1
tRp4423
(I3
S'|'
NNNI6
I1
I0
tbS'229090'
tRp4424
ag3
(g4
(S'S11'
I0
I1
tRp4425
(I3
S'|'
NNNI11
I1
I0
tbS'24xayGF5yYA'
tRp4426
ag3
(g4
(S'S11'
I0
I1
tRp4427
(I3
S'|'
NNNI11
I1
I0
tbS'YqHEmUKUy-E'
tRp4428
ag3
(g4
(S'S11'
I0
I1
tRp4429
(I3
S'|'
NNNI11
I1
I0
tbS'wCtZdAdoIm8'
tRp4430
ag3
(g4
(S'S11'
I0
I1
tRp4431
(I3
S'|'
NNNI11
I1
I0
tbS'-dxfTGcXJoc'
tRp4432
ag3
(g4
(S'S11'
I0
I1
tRp4433
(I3
S'|'
NNNI11
I1
I0
tbS'H4RysMUSQD8'
tRp4434
ag3
(g4
(S'S11'
I0
I1
tRp4435
(I3
S'|'
NNNI11
I1
I0
tbS'6qPjYvdZiLA'
tRp4436
ag3
(g4
(S'S11'
I0
I1
tRp4437
(I3
S'|'
NNNI11
I1
I0
tbS'ePtlUYCdrNM'
tRp4438
ag3
(g4
(S'S11'
I0
I1
tRp4439
(I3
S'|'
NNNI11
I1
I0
tbS'DVvJoMt9o80'
tRp4440
ag3
(g4
(S'S11'
I0
I1
tRp4441
(I3
S'|'
NNNI11
I1
I0
tbS'h4LrwMn94ss'
tRp4442
ag3
(g4
(S'S11'
I0
I1
tRp4443
(I3
S'|'
NNNI11
I1
I0
tbS'wdU-0bttAkc'
tRp4444
ag3
(g4
(S'S11'
I0
I1
tRp4445
(I3
S'|'
NNNI11
I1
I0
tbS'luQfWSfb1s0'
tRp4446
ag3
(g4
(S'S11'
I0
I1
tRp4447
(I3
S'|'
NNNI11
I1
I0
tbS'atxoi7pB5TM'
tRp4448
ag3
(g4
(S'S11'
I0
I1
tRp4449
(I3
S'|'
NNNI11
I1
I0
tbS'48nifdN2vSI'
tRp4450
ag3
(g4
(S'S11'
I0
I1
tRp4451
(I3
S'|'
NNNI11
I1
I0
tbS'g8NBNtY3cpU'
tRp4452
ag3
(g4
(S'S11'
I0
I1
tRp4453
(I3
S'|'
NNNI11
I1
I0
tbS'kk4gr5A6_Uw'
tRp4454
ag3
(g4
(S'S11'
I0
I1
tRp4455
(I3
S'|'
NNNI11
I1
I0
tbS'J7UduuBfnrE'
tRp4456
ag3
(g4
(S'S11'
I0
I1
tRp4457
(I3
S'|'
NNNI11
I1
I0
tbS'R-17BoOk4kc'
tRp4458
ag3
(g4
(S'S11'
I0
I1
tRp4459
(I3
S'|'
NNNI11
I1
I0
tbS'5YnYGjrhzF4'
tRp4460
ag3
(g4
(S'S11'
I0
I1
tRp4461
(I3
S'|'
NNNI11
I1
I0
tbS'DfTMoqwMHVE'
tRp4462
ag3
(g4
(S'S11'
I0
I1
tRp4463
(I3
S'|'
NNNI11
I1
I0
tbS'8P0zm2oYDyY'
tRp4464
ag3
(g4
(S'S11'
I0
I1
tRp4465
(I3
S'|'
NNNI11
I1
I0
tbS'b8xmgi4VV0M'
tRp4466
ag3
(g4
(S'S11'
I0
I1
tRp4467
(I3
S'|'
NNNI11
I1
I0
tbS'Xe-keAcLge0'
tRp4468
ag3
(g4
(S'S6'
I0
I1
tRp4469
(I3
S'|'
NNNI6
I1
I0
tbS'131936'
tRp4470
ag3
(g4
(S'S11'
I0
I1
tRp4471
(I3
S'|'
NNNI11
I1
I0
tbS'1pvK0_9SQns'
tRp4472
ag3
(g4
(S'S11'
I0
I1
tRp4473
(I3
S'|'
NNNI11
I1
I0
tbS'T-8TvJcS78w'
tRp4474
ag3
(g4
(S'S11'
I0
I1
tRp4475
(I3
S'|'
NNNI11
I1
I0
tbS'CfWxp5bRt2A'
tRp4476
ag3
(g4
(S'S11'
I0
I1
tRp4477
(I3
S'|'
NNNI11
I1
I0
tbS'hhK7q30p0Jk'
tRp4478
ag3
(g4
(S'S11'
I0
I1
tRp4479
(I3
S'|'
NNNI11
I1
I0
tbS'STeqtJLakQQ'
tRp4480
ag3
(g4
(S'S11'
I0
I1
tRp4481
(I3
S'|'
NNNI11
I1
I0
tbS'C-UUQju3bXo'
tRp4482
ag3
(g4
(S'S11'
I0
I1
tRp4483
(I3
S'|'
NNNI11
I1
I0
tbS'HuIKyKkEL0Q'
tRp4484
ag3
(g4
(S'S11'
I0
I1
tRp4485
(I3
S'|'
NNNI11
I1
I0
tbS'NkbRuTJaj_M'
tRp4486
ag3
(g4
(S'S11'
I0
I1
tRp4487
(I3
S'|'
NNNI11
I1
I0
tbS'Fmwc7wkIc4Q'
tRp4488
ag3
(g4
(S'S11'
I0
I1
tRp4489
(I3
S'|'
NNNI11
I1
I0
tbS'A8c7q_P4jQg'
tRp4490
ag3
(g4
(S'S11'
I0
I1
tRp4491
(I3
S'|'
NNNI11
I1
I0
tbS'VbmSzYg_lmg'
tRp4492
ag3
(g4
(S'S11'
I0
I1
tRp4493
(I3
S'|'
NNNI11
I1
I0
tbS'pI5Kng_GuLE'
tRp4494
ag3
(g4
(S'S11'
I0
I1
tRp4495
(I3
S'|'
NNNI11
I1
I0
tbS'Ctc23Icfzvg'
tRp4496
ag3
(g4
(S'S11'
I0
I1
tRp4497
(I3
S'|'
NNNI11
I1
I0
tbS'DZBpdzrMelA'
tRp4498
ag3
(g4
(S'S11'
I0
I1
tRp4499
(I3
S'|'
NNNI11
I1
I0
tbS'QI-TTqj0KnA'
tRp4500
ag3
(g4
(S'S11'
I0
I1
tRp4501
(I3
S'|'
NNNI11
I1
I0
tbS'mO4H5S_Q7aU'
tRp4502
ag3
(g4
(S'S5'
I0
I1
tRp4503
(I3
S'|'
NNNI5
I1
I0
tbS'91276'
tRp4504
atRp4505
.